Archive member included to satisfy reference by file (symbol)

/home/sean/.cache/arduino/sketches/828FCB417685B578D8734FE54D6C0719/../../cores/adafruit_nrf52_feather52832_834d5f6a6bc090e19e7c4385762c2a0a/core.a(gcc_startup_nrf52.S.o)
                              (Reset_Handler)
/home/sean/.cache/arduino/sketches/828FCB417685B578D8734FE54D6C0719/../../cores/adafruit_nrf52_feather52832_834d5f6a6bc090e19e7c4385762c2a0a/core.a(main.cpp.o)
                              /home/sean/.arduino15/packages/adafruit/tools/arm-none-eabi-gcc/9-2019q4/bin/../lib/gcc/arm-none-eabi/9.2.1/../../../../arm-none-eabi/lib/thumb/v7e-m+fp/hard/crt0.o (main)
/home/sean/.cache/arduino/sketches/828FCB417685B578D8734FE54D6C0719/../../cores/adafruit_nrf52_feather52832_834d5f6a6bc090e19e7c4385762c2a0a/core.a(system_nrf52.c.o)
                              /home/sean/.cache/arduino/sketches/828FCB417685B578D8734FE54D6C0719/../../cores/adafruit_nrf52_feather52832_834d5f6a6bc090e19e7c4385762c2a0a/core.a(gcc_startup_nrf52.S.o) (SystemInit)
/home/sean/.cache/arduino/sketches/828FCB417685B578D8734FE54D6C0719/../../cores/adafruit_nrf52_feather52832_834d5f6a6bc090e19e7c4385762c2a0a/core.a(rtos.cpp.o)
                              /home/sean/.cache/arduino/sketches/828FCB417685B578D8734FE54D6C0719/../../cores/adafruit_nrf52_feather52832_834d5f6a6bc090e19e7c4385762c2a0a/core.a(main.cpp.o) (yield)
/home/sean/.cache/arduino/sketches/828FCB417685B578D8734FE54D6C0719/../../cores/adafruit_nrf52_feather52832_834d5f6a6bc090e19e7c4385762c2a0a/core.a(AdaCallback.c.o)
                              /home/sean/.cache/arduino/sketches/828FCB417685B578D8734FE54D6C0719/../../cores/adafruit_nrf52_feather52832_834d5f6a6bc090e19e7c4385762c2a0a/core.a(main.cpp.o) (ada_callback_init)
/home/sean/.cache/arduino/sketches/828FCB417685B578D8734FE54D6C0719/../../cores/adafruit_nrf52_feather52832_834d5f6a6bc090e19e7c4385762c2a0a/core.a(wiring.c.o)
                              /home/sean/.cache/arduino/sketches/828FCB417685B578D8734FE54D6C0719/../../cores/adafruit_nrf52_feather52832_834d5f6a6bc090e19e7c4385762c2a0a/core.a(main.cpp.o) (init)
/home/sean/.cache/arduino/sketches/828FCB417685B578D8734FE54D6C0719/../../cores/adafruit_nrf52_feather52832_834d5f6a6bc090e19e7c4385762c2a0a/core.a(wiring_digital.c.o)
                              /home/sean/.cache/arduino/sketches/828FCB417685B578D8734FE54D6C0719/core/variant.cpp.o (pinMode)
/home/sean/.cache/arduino/sketches/828FCB417685B578D8734FE54D6C0719/../../cores/adafruit_nrf52_feather52832_834d5f6a6bc090e19e7c4385762c2a0a/core.a(Uart.cpp.o)
                              /home/sean/.cache/arduino/sketches/828FCB417685B578D8734FE54D6C0719/../../cores/adafruit_nrf52_feather52832_834d5f6a6bc090e19e7c4385762c2a0a/core.a(main.cpp.o) (Uart::write(unsigned char const*, unsigned int))
/home/sean/.cache/arduino/sketches/828FCB417685B578D8734FE54D6C0719/../../cores/adafruit_nrf52_feather52832_834d5f6a6bc090e19e7c4385762c2a0a/core.a(heap_3.c.o)
                              /home/sean/.cache/arduino/sketches/828FCB417685B578D8734FE54D6C0719/../../cores/adafruit_nrf52_feather52832_834d5f6a6bc090e19e7c4385762c2a0a/core.a(AdaCallback.c.o) (__wrap_malloc)
/home/sean/.cache/arduino/sketches/828FCB417685B578D8734FE54D6C0719/../../cores/adafruit_nrf52_feather52832_834d5f6a6bc090e19e7c4385762c2a0a/core.a(queue.c.o)
                              /home/sean/.cache/arduino/sketches/828FCB417685B578D8734FE54D6C0719/../../cores/adafruit_nrf52_feather52832_834d5f6a6bc090e19e7c4385762c2a0a/core.a(AdaCallback.c.o) (xQueueGenericCreate)
/home/sean/.cache/arduino/sketches/828FCB417685B578D8734FE54D6C0719/../../cores/adafruit_nrf52_feather52832_834d5f6a6bc090e19e7c4385762c2a0a/core.a(tasks.c.o)
                              /home/sean/.cache/arduino/sketches/828FCB417685B578D8734FE54D6C0719/../../cores/adafruit_nrf52_feather52832_834d5f6a6bc090e19e7c4385762c2a0a/core.a(main.cpp.o) (xTaskCreate)
/home/sean/.cache/arduino/sketches/828FCB417685B578D8734FE54D6C0719/../../cores/adafruit_nrf52_feather52832_834d5f6a6bc090e19e7c4385762c2a0a/core.a(timers.c.o)
                              /home/sean/.cache/arduino/sketches/828FCB417685B578D8734FE54D6C0719/../../cores/adafruit_nrf52_feather52832_834d5f6a6bc090e19e7c4385762c2a0a/core.a(tasks.c.o) (xTimerCreateTimerTask)
/home/sean/.cache/arduino/sketches/828FCB417685B578D8734FE54D6C0719/../../cores/adafruit_nrf52_feather52832_834d5f6a6bc090e19e7c4385762c2a0a/core.a(port_cmsis.c.o)
                              /home/sean/.cache/arduino/sketches/828FCB417685B578D8734FE54D6C0719/../../cores/adafruit_nrf52_feather52832_834d5f6a6bc090e19e7c4385762c2a0a/core.a(tasks.c.o) (pxPortInitialiseStack)
/home/sean/.cache/arduino/sketches/828FCB417685B578D8734FE54D6C0719/../../cores/adafruit_nrf52_feather52832_834d5f6a6bc090e19e7c4385762c2a0a/core.a(port_cmsis_systick.c.o)
                              /home/sean/.cache/arduino/sketches/828FCB417685B578D8734FE54D6C0719/../../cores/adafruit_nrf52_feather52832_834d5f6a6bc090e19e7c4385762c2a0a/core.a(port_cmsis.c.o) (vPortSetupTimerInterrupt)
/home/sean/.cache/arduino/sketches/828FCB417685B578D8734FE54D6C0719/../../cores/adafruit_nrf52_feather52832_834d5f6a6bc090e19e7c4385762c2a0a/core.a(port.c.o)
                              /home/sean/.cache/arduino/sketches/828FCB417685B578D8734FE54D6C0719/../../cores/adafruit_nrf52_feather52832_834d5f6a6bc090e19e7c4385762c2a0a/core.a(port_cmsis.c.o) (vPortStartFirstTask)
/home/sean/.cache/arduino/sketches/828FCB417685B578D8734FE54D6C0719/../../cores/adafruit_nrf52_feather52832_834d5f6a6bc090e19e7c4385762c2a0a/core.a(hooks.c.o)
                              /home/sean/.cache/arduino/sketches/828FCB417685B578D8734FE54D6C0719/../../cores/adafruit_nrf52_feather52832_834d5f6a6bc090e19e7c4385762c2a0a/core.a(tasks.c.o) (vApplicationIdleHook)
/home/sean/.cache/arduino/sketches/828FCB417685B578D8734FE54D6C0719/../../cores/adafruit_nrf52_feather52832_834d5f6a6bc090e19e7c4385762c2a0a/core.a(RingBuffer.cpp.o)
                              /home/sean/.cache/arduino/sketches/828FCB417685B578D8734FE54D6C0719/../../cores/adafruit_nrf52_feather52832_834d5f6a6bc090e19e7c4385762c2a0a/core.a(Uart.cpp.o) (RingBuffer::RingBuffer())
/home/sean/.cache/arduino/sketches/828FCB417685B578D8734FE54D6C0719/../../cores/adafruit_nrf52_feather52832_834d5f6a6bc090e19e7c4385762c2a0a/core.a(list.c.o)
                              /home/sean/.cache/arduino/sketches/828FCB417685B578D8734FE54D6C0719/../../cores/adafruit_nrf52_feather52832_834d5f6a6bc090e19e7c4385762c2a0a/core.a(queue.c.o) (vListInitialise)
/home/sean/.arduino15/packages/adafruit/tools/arm-none-eabi-gcc/9-2019q4/bin/../lib/gcc/arm-none-eabi/9.2.1/../../../../arm-none-eabi/lib/thumb/v7e-m+fp/hard/libc.a(lib_a-calloc.o)
                              /home/sean/.cache/arduino/sketches/828FCB417685B578D8734FE54D6C0719/../../cores/adafruit_nrf52_feather52832_834d5f6a6bc090e19e7c4385762c2a0a/core.a(heap_3.c.o) (calloc)
/home/sean/.arduino15/packages/adafruit/tools/arm-none-eabi-gcc/9-2019q4/bin/../lib/gcc/arm-none-eabi/9.2.1/../../../../arm-none-eabi/lib/thumb/v7e-m+fp/hard/libc.a(lib_a-callocr.o)
                              /home/sean/.arduino15/packages/adafruit/tools/arm-none-eabi-gcc/9-2019q4/bin/../lib/gcc/arm-none-eabi/9.2.1/../../../../arm-none-eabi/lib/thumb/v7e-m+fp/hard/libc.a(lib_a-calloc.o) (_calloc_r)
/home/sean/.arduino15/packages/adafruit/tools/arm-none-eabi-gcc/9-2019q4/bin/../lib/gcc/arm-none-eabi/9.2.1/../../../../arm-none-eabi/lib/thumb/v7e-m+fp/hard/libc.a(lib_a-exit.o)
                              /home/sean/.arduino15/packages/adafruit/tools/arm-none-eabi-gcc/9-2019q4/bin/../lib/gcc/arm-none-eabi/9.2.1/../../../../arm-none-eabi/lib/thumb/v7e-m+fp/hard/crt0.o (exit)
/home/sean/.arduino15/packages/adafruit/tools/arm-none-eabi-gcc/9-2019q4/bin/../lib/gcc/arm-none-eabi/9.2.1/../../../../arm-none-eabi/lib/thumb/v7e-m+fp/hard/libc.a(lib_a-impure.o)
                              /home/sean/.arduino15/packages/adafruit/tools/arm-none-eabi-gcc/9-2019q4/bin/../lib/gcc/arm-none-eabi/9.2.1/../../../../arm-none-eabi/lib/thumb/v7e-m+fp/hard/libc.a(lib_a-exit.o) (_global_impure_ptr)
/home/sean/.arduino15/packages/adafruit/tools/arm-none-eabi-gcc/9-2019q4/bin/../lib/gcc/arm-none-eabi/9.2.1/../../../../arm-none-eabi/lib/thumb/v7e-m+fp/hard/libc.a(lib_a-init.o)
                              /home/sean/.arduino15/packages/adafruit/tools/arm-none-eabi-gcc/9-2019q4/bin/../lib/gcc/arm-none-eabi/9.2.1/../../../../arm-none-eabi/lib/thumb/v7e-m+fp/hard/crt0.o (__libc_init_array)
/home/sean/.arduino15/packages/adafruit/tools/arm-none-eabi-gcc/9-2019q4/bin/../lib/gcc/arm-none-eabi/9.2.1/../../../../arm-none-eabi/lib/thumb/v7e-m+fp/hard/libc.a(lib_a-malloc.o)
                              /home/sean/.cache/arduino/sketches/828FCB417685B578D8734FE54D6C0719/../../cores/adafruit_nrf52_feather52832_834d5f6a6bc090e19e7c4385762c2a0a/core.a(heap_3.c.o) (malloc)
/home/sean/.arduino15/packages/adafruit/tools/arm-none-eabi-gcc/9-2019q4/bin/../lib/gcc/arm-none-eabi/9.2.1/../../../../arm-none-eabi/lib/thumb/v7e-m+fp/hard/libc.a(lib_a-mallocr.o)
                              /home/sean/.arduino15/packages/adafruit/tools/arm-none-eabi-gcc/9-2019q4/bin/../lib/gcc/arm-none-eabi/9.2.1/../../../../arm-none-eabi/lib/thumb/v7e-m+fp/hard/libc.a(lib_a-callocr.o) (_malloc_r)
/home/sean/.arduino15/packages/adafruit/tools/arm-none-eabi-gcc/9-2019q4/bin/../lib/gcc/arm-none-eabi/9.2.1/../../../../arm-none-eabi/lib/thumb/v7e-m+fp/hard/libc.a(lib_a-memcpy.o)
                              /home/sean/.cache/arduino/sketches/828FCB417685B578D8734FE54D6C0719/../../cores/adafruit_nrf52_feather52832_834d5f6a6bc090e19e7c4385762c2a0a/core.a(AdaCallback.c.o) (memcpy)
/home/sean/.arduino15/packages/adafruit/tools/arm-none-eabi-gcc/9-2019q4/bin/../lib/gcc/arm-none-eabi/9.2.1/../../../../arm-none-eabi/lib/thumb/v7e-m+fp/hard/libc.a(lib_a-memset.o)
                              /home/sean/.arduino15/packages/adafruit/tools/arm-none-eabi-gcc/9-2019q4/bin/../lib/gcc/arm-none-eabi/9.2.1/../../../../arm-none-eabi/lib/thumb/v7e-m+fp/hard/crt0.o (memset)
/home/sean/.arduino15/packages/adafruit/tools/arm-none-eabi-gcc/9-2019q4/bin/../lib/gcc/arm-none-eabi/9.2.1/../../../../arm-none-eabi/lib/thumb/v7e-m+fp/hard/libc.a(lib_a-mlock.o)
                              /home/sean/.arduino15/packages/adafruit/tools/arm-none-eabi-gcc/9-2019q4/bin/../lib/gcc/arm-none-eabi/9.2.1/../../../../arm-none-eabi/lib/thumb/v7e-m+fp/hard/libc.a(lib_a-mallocr.o) (__malloc_lock)
/home/sean/.arduino15/packages/adafruit/tools/arm-none-eabi-gcc/9-2019q4/bin/../lib/gcc/arm-none-eabi/9.2.1/../../../../arm-none-eabi/lib/thumb/v7e-m+fp/hard/libc.a(lib_a-realloc.o)
                              /home/sean/.cache/arduino/sketches/828FCB417685B578D8734FE54D6C0719/../../cores/adafruit_nrf52_feather52832_834d5f6a6bc090e19e7c4385762c2a0a/core.a(heap_3.c.o) (realloc)
/home/sean/.arduino15/packages/adafruit/tools/arm-none-eabi-gcc/9-2019q4/bin/../lib/gcc/arm-none-eabi/9.2.1/../../../../arm-none-eabi/lib/thumb/v7e-m+fp/hard/libc.a(lib_a-reallocr.o)
                              /home/sean/.arduino15/packages/adafruit/tools/arm-none-eabi-gcc/9-2019q4/bin/../lib/gcc/arm-none-eabi/9.2.1/../../../../arm-none-eabi/lib/thumb/v7e-m+fp/hard/libc.a(lib_a-realloc.o) (_realloc_r)
/home/sean/.arduino15/packages/adafruit/tools/arm-none-eabi-gcc/9-2019q4/bin/../lib/gcc/arm-none-eabi/9.2.1/../../../../arm-none-eabi/lib/thumb/v7e-m+fp/hard/libc.a(lib_a-sbrkr.o)
                              /home/sean/.arduino15/packages/adafruit/tools/arm-none-eabi-gcc/9-2019q4/bin/../lib/gcc/arm-none-eabi/9.2.1/../../../../arm-none-eabi/lib/thumb/v7e-m+fp/hard/libc.a(lib_a-mallocr.o) (_sbrk_r)
/home/sean/.arduino15/packages/adafruit/tools/arm-none-eabi-gcc/9-2019q4/bin/../lib/gcc/arm-none-eabi/9.2.1/../../../../arm-none-eabi/lib/thumb/v7e-m+fp/hard/libc.a(lib_a-sprintf.o)
                              /home/sean/.cache/arduino/sketches/828FCB417685B578D8734FE54D6C0719/../../cores/adafruit_nrf52_feather52832_834d5f6a6bc090e19e7c4385762c2a0a/core.a(tasks.c.o) (sprintf)
/home/sean/.arduino15/packages/adafruit/tools/arm-none-eabi-gcc/9-2019q4/bin/../lib/gcc/arm-none-eabi/9.2.1/../../../../arm-none-eabi/lib/thumb/v7e-m+fp/hard/libc.a(lib_a-stpcpy.o)
                              /home/sean/.cache/arduino/sketches/828FCB417685B578D8734FE54D6C0719/../../cores/adafruit_nrf52_feather52832_834d5f6a6bc090e19e7c4385762c2a0a/core.a(tasks.c.o) (stpcpy)
/home/sean/.arduino15/packages/adafruit/tools/arm-none-eabi-gcc/9-2019q4/bin/../lib/gcc/arm-none-eabi/9.2.1/../../../../arm-none-eabi/lib/thumb/v7e-m+fp/hard/libc.a(lib_a-strlen.o)
                              /home/sean/.cache/arduino/sketches/828FCB417685B578D8734FE54D6C0719/../../cores/adafruit_nrf52_feather52832_834d5f6a6bc090e19e7c4385762c2a0a/core.a(tasks.c.o) (strlen)
/home/sean/.arduino15/packages/adafruit/tools/arm-none-eabi-gcc/9-2019q4/bin/../lib/gcc/arm-none-eabi/9.2.1/../../../../arm-none-eabi/lib/thumb/v7e-m+fp/hard/libc.a(lib_a-svfprintf.o)
                              /home/sean/.arduino15/packages/adafruit/tools/arm-none-eabi-gcc/9-2019q4/bin/../lib/gcc/arm-none-eabi/9.2.1/../../../../arm-none-eabi/lib/thumb/v7e-m+fp/hard/libc.a(lib_a-sprintf.o) (_svfprintf_r)
/home/sean/.arduino15/packages/adafruit/tools/arm-none-eabi-gcc/9-2019q4/bin/../lib/gcc/arm-none-eabi/9.2.1/../../../../arm-none-eabi/lib/thumb/v7e-m+fp/hard/libc.a(lib_a-__call_atexit.o)
                              /home/sean/.arduino15/packages/adafruit/tools/arm-none-eabi-gcc/9-2019q4/bin/../lib/gcc/arm-none-eabi/9.2.1/../../../../arm-none-eabi/lib/thumb/v7e-m+fp/hard/libc.a(lib_a-exit.o) (__call_exitprocs)
/home/sean/.arduino15/packages/adafruit/tools/arm-none-eabi-gcc/9-2019q4/bin/../lib/gcc/arm-none-eabi/9.2.1/../../../../arm-none-eabi/lib/thumb/v7e-m+fp/hard/libc.a(lib_a-atexit.o)
                              /home/sean/.arduino15/packages/adafruit/tools/arm-none-eabi-gcc/9-2019q4/bin/../lib/gcc/arm-none-eabi/9.2.1/../../../../arm-none-eabi/lib/thumb/v7e-m+fp/hard/libc.a(lib_a-__call_atexit.o) (atexit)
/home/sean/.arduino15/packages/adafruit/tools/arm-none-eabi-gcc/9-2019q4/bin/../lib/gcc/arm-none-eabi/9.2.1/../../../../arm-none-eabi/lib/thumb/v7e-m+fp/hard/libc.a(lib_a-dtoa.o)
                              /home/sean/.arduino15/packages/adafruit/tools/arm-none-eabi-gcc/9-2019q4/bin/../lib/gcc/arm-none-eabi/9.2.1/../../../../arm-none-eabi/lib/thumb/v7e-m+fp/hard/libc.a(lib_a-svfprintf.o) (_dtoa_r)
/home/sean/.arduino15/packages/adafruit/tools/arm-none-eabi-gcc/9-2019q4/bin/../lib/gcc/arm-none-eabi/9.2.1/../../../../arm-none-eabi/lib/thumb/v7e-m+fp/hard/libc.a(lib_a-fini.o)
                              /home/sean/.arduino15/packages/adafruit/tools/arm-none-eabi-gcc/9-2019q4/bin/../lib/gcc/arm-none-eabi/9.2.1/../../../../arm-none-eabi/lib/thumb/v7e-m+fp/hard/libc.a(lib_a-__call_atexit.o) (__libc_fini_array)
/home/sean/.arduino15/packages/adafruit/tools/arm-none-eabi-gcc/9-2019q4/bin/../lib/gcc/arm-none-eabi/9.2.1/../../../../arm-none-eabi/lib/thumb/v7e-m+fp/hard/libc.a(lib_a-freer.o)
                              /home/sean/.arduino15/packages/adafruit/tools/arm-none-eabi-gcc/9-2019q4/bin/../lib/gcc/arm-none-eabi/9.2.1/../../../../arm-none-eabi/lib/thumb/v7e-m+fp/hard/libc.a(lib_a-malloc.o) (_free_r)
/home/sean/.arduino15/packages/adafruit/tools/arm-none-eabi-gcc/9-2019q4/bin/../lib/gcc/arm-none-eabi/9.2.1/../../../../arm-none-eabi/lib/thumb/v7e-m+fp/hard/libc.a(lib_a-localeconv.o)
                              /home/sean/.arduino15/packages/adafruit/tools/arm-none-eabi-gcc/9-2019q4/bin/../lib/gcc/arm-none-eabi/9.2.1/../../../../arm-none-eabi/lib/thumb/v7e-m+fp/hard/libc.a(lib_a-svfprintf.o) (_localeconv_r)
/home/sean/.arduino15/packages/adafruit/tools/arm-none-eabi-gcc/9-2019q4/bin/../lib/gcc/arm-none-eabi/9.2.1/../../../../arm-none-eabi/lib/thumb/v7e-m+fp/hard/libc.a(lib_a-lock.o)
                              /home/sean/.arduino15/packages/adafruit/tools/arm-none-eabi-gcc/9-2019q4/bin/../lib/gcc/arm-none-eabi/9.2.1/../../../../arm-none-eabi/lib/thumb/v7e-m+fp/hard/libc.a(lib_a-mlock.o) (__retarget_lock_acquire_recursive)
/home/sean/.arduino15/packages/adafruit/tools/arm-none-eabi-gcc/9-2019q4/bin/../lib/gcc/arm-none-eabi/9.2.1/../../../../arm-none-eabi/lib/thumb/v7e-m+fp/hard/libc.a(lib_a-memchr.o)
                              /home/sean/.arduino15/packages/adafruit/tools/arm-none-eabi-gcc/9-2019q4/bin/../lib/gcc/arm-none-eabi/9.2.1/../../../../arm-none-eabi/lib/thumb/v7e-m+fp/hard/libc.a(lib_a-svfprintf.o) (memchr)
/home/sean/.arduino15/packages/adafruit/tools/arm-none-eabi-gcc/9-2019q4/bin/../lib/gcc/arm-none-eabi/9.2.1/../../../../arm-none-eabi/lib/thumb/v7e-m+fp/hard/libc.a(lib_a-memmove.o)
                              /home/sean/.arduino15/packages/adafruit/tools/arm-none-eabi-gcc/9-2019q4/bin/../lib/gcc/arm-none-eabi/9.2.1/../../../../arm-none-eabi/lib/thumb/v7e-m+fp/hard/libc.a(lib_a-reallocr.o) (memmove)
/home/sean/.arduino15/packages/adafruit/tools/arm-none-eabi-gcc/9-2019q4/bin/../lib/gcc/arm-none-eabi/9.2.1/../../../../arm-none-eabi/lib/thumb/v7e-m+fp/hard/libc.a(lib_a-mprec.o)
                              /home/sean/.arduino15/packages/adafruit/tools/arm-none-eabi-gcc/9-2019q4/bin/../lib/gcc/arm-none-eabi/9.2.1/../../../../arm-none-eabi/lib/thumb/v7e-m+fp/hard/libc.a(lib_a-dtoa.o) (_Balloc)
/home/sean/.arduino15/packages/adafruit/tools/arm-none-eabi-gcc/9-2019q4/bin/../lib/gcc/arm-none-eabi/9.2.1/../../../../arm-none-eabi/lib/thumb/v7e-m+fp/hard/libc.a(lib_a-reent.o)
                              /home/sean/.arduino15/packages/adafruit/tools/arm-none-eabi-gcc/9-2019q4/bin/../lib/gcc/arm-none-eabi/9.2.1/../../../../arm-none-eabi/lib/thumb/v7e-m+fp/hard/libc.a(lib_a-sbrkr.o) (errno)
/home/sean/.arduino15/packages/adafruit/tools/arm-none-eabi-gcc/9-2019q4/bin/../lib/gcc/arm-none-eabi/9.2.1/../../../../arm-none-eabi/lib/thumb/v7e-m+fp/hard/libc.a(lib_a-s_frexp.o)
                              /home/sean/.arduino15/packages/adafruit/tools/arm-none-eabi-gcc/9-2019q4/bin/../lib/gcc/arm-none-eabi/9.2.1/../../../../arm-none-eabi/lib/thumb/v7e-m+fp/hard/libc.a(lib_a-svfprintf.o) (frexp)
/home/sean/.arduino15/packages/adafruit/tools/arm-none-eabi-gcc/9-2019q4/bin/../lib/gcc/arm-none-eabi/9.2.1/../../../../arm-none-eabi/lib/thumb/v7e-m+fp/hard/libc.a(lib_a-strncpy.o)
                              /home/sean/.arduino15/packages/adafruit/tools/arm-none-eabi-gcc/9-2019q4/bin/../lib/gcc/arm-none-eabi/9.2.1/../../../../arm-none-eabi/lib/thumb/v7e-m+fp/hard/libc.a(lib_a-svfprintf.o) (strncpy)
/home/sean/.arduino15/packages/adafruit/tools/arm-none-eabi-gcc/9-2019q4/bin/../lib/gcc/arm-none-eabi/9.2.1/../../../../arm-none-eabi/lib/thumb/v7e-m+fp/hard/libc.a(lib_a-svfiprintf.o)
                              /home/sean/.arduino15/packages/adafruit/tools/arm-none-eabi-gcc/9-2019q4/bin/../lib/gcc/arm-none-eabi/9.2.1/../../../../arm-none-eabi/lib/thumb/v7e-m+fp/hard/libc.a(lib_a-svfprintf.o) (__ssprint_r)
/home/sean/.arduino15/packages/adafruit/tools/arm-none-eabi-gcc/9-2019q4/bin/../lib/gcc/arm-none-eabi/9.2.1/../../../../arm-none-eabi/lib/thumb/v7e-m+fp/hard/libc.a(lib_a-__atexit.o)
                              /home/sean/.arduino15/packages/adafruit/tools/arm-none-eabi-gcc/9-2019q4/bin/../lib/gcc/arm-none-eabi/9.2.1/../../../../arm-none-eabi/lib/thumb/v7e-m+fp/hard/libc.a(lib_a-atexit.o) (__register_exitproc)
/home/sean/.arduino15/packages/adafruit/tools/arm-none-eabi-gcc/9-2019q4/bin/../lib/gcc/arm-none-eabi/9.2.1/../../../../arm-none-eabi/lib/thumb/v7e-m+fp/hard/libc.a(lib_a-locale.o)
                              /home/sean/.arduino15/packages/adafruit/tools/arm-none-eabi-gcc/9-2019q4/bin/../lib/gcc/arm-none-eabi/9.2.1/../../../../arm-none-eabi/lib/thumb/v7e-m+fp/hard/libc.a(lib_a-localeconv.o) (__global_locale)
/home/sean/.arduino15/packages/adafruit/tools/arm-none-eabi-gcc/9-2019q4/bin/../lib/gcc/arm-none-eabi/9.2.1/../../../../arm-none-eabi/lib/thumb/v7e-m+fp/hard/libc.a(lib_a-mbtowc_r.o)
                              /home/sean/.arduino15/packages/adafruit/tools/arm-none-eabi-gcc/9-2019q4/bin/../lib/gcc/arm-none-eabi/9.2.1/../../../../arm-none-eabi/lib/thumb/v7e-m+fp/hard/libc.a(lib_a-locale.o) (__ascii_mbtowc)
/home/sean/.arduino15/packages/adafruit/tools/arm-none-eabi-gcc/9-2019q4/bin/../lib/gcc/arm-none-eabi/9.2.1/../../../../arm-none-eabi/lib/thumb/v7e-m+fp/hard/libc.a(lib_a-strcmp.o)
                              /home/sean/.arduino15/packages/adafruit/tools/arm-none-eabi-gcc/9-2019q4/bin/../lib/gcc/arm-none-eabi/9.2.1/../../../../arm-none-eabi/lib/thumb/v7e-m+fp/hard/libc.a(lib_a-locale.o) (strcmp)
/home/sean/.arduino15/packages/adafruit/tools/arm-none-eabi-gcc/9-2019q4/bin/../lib/gcc/arm-none-eabi/9.2.1/../../../../arm-none-eabi/lib/thumb/v7e-m+fp/hard/libc.a(lib_a-wctomb_r.o)
                              /home/sean/.arduino15/packages/adafruit/tools/arm-none-eabi-gcc/9-2019q4/bin/../lib/gcc/arm-none-eabi/9.2.1/../../../../arm-none-eabi/lib/thumb/v7e-m+fp/hard/libc.a(lib_a-locale.o) (__ascii_wctomb)
/home/sean/.arduino15/packages/adafruit/tools/arm-none-eabi-gcc/9-2019q4/bin/../lib/gcc/arm-none-eabi/9.2.1/../../../../arm-none-eabi/lib/thumb/v7e-m+fp/hard/libc.a(lib_a-ctype_.o)
                              /home/sean/.arduino15/packages/adafruit/tools/arm-none-eabi-gcc/9-2019q4/bin/../lib/gcc/arm-none-eabi/9.2.1/../../../../arm-none-eabi/lib/thumb/v7e-m+fp/hard/libc.a(lib_a-locale.o) (_ctype_)
/home/sean/.arduino15/packages/adafruit/tools/arm-none-eabi-gcc/9-2019q4/bin/../lib/gcc/arm-none-eabi/9.2.1/thumb/v7e-m+fp/hard/libgcc.a(_arm_muldf3.o)
                              /home/sean/.arduino15/packages/adafruit/tools/arm-none-eabi-gcc/9-2019q4/bin/../lib/gcc/arm-none-eabi/9.2.1/../../../../arm-none-eabi/lib/thumb/v7e-m+fp/hard/libc.a(lib_a-svfprintf.o) (__aeabi_dmul)
/home/sean/.arduino15/packages/adafruit/tools/arm-none-eabi-gcc/9-2019q4/bin/../lib/gcc/arm-none-eabi/9.2.1/thumb/v7e-m+fp/hard/libgcc.a(_arm_addsubdf3.o)
                              /home/sean/.arduino15/packages/adafruit/tools/arm-none-eabi-gcc/9-2019q4/bin/../lib/gcc/arm-none-eabi/9.2.1/../../../../arm-none-eabi/lib/thumb/v7e-m+fp/hard/libc.a(lib_a-svfprintf.o) (__aeabi_dsub)
/home/sean/.arduino15/packages/adafruit/tools/arm-none-eabi-gcc/9-2019q4/bin/../lib/gcc/arm-none-eabi/9.2.1/thumb/v7e-m+fp/hard/libgcc.a(_arm_muldivdf3.o)
                              /home/sean/.arduino15/packages/adafruit/tools/arm-none-eabi-gcc/9-2019q4/bin/../lib/gcc/arm-none-eabi/9.2.1/../../../../arm-none-eabi/lib/thumb/v7e-m+fp/hard/libc.a(lib_a-dtoa.o) (__aeabi_ddiv)
/home/sean/.arduino15/packages/adafruit/tools/arm-none-eabi-gcc/9-2019q4/bin/../lib/gcc/arm-none-eabi/9.2.1/thumb/v7e-m+fp/hard/libgcc.a(_arm_cmpdf2.o)
                              /home/sean/.arduino15/packages/adafruit/tools/arm-none-eabi-gcc/9-2019q4/bin/../lib/gcc/arm-none-eabi/9.2.1/../../../../arm-none-eabi/lib/thumb/v7e-m+fp/hard/libc.a(lib_a-svfprintf.o) (__aeabi_dcmpeq)
/home/sean/.arduino15/packages/adafruit/tools/arm-none-eabi-gcc/9-2019q4/bin/../lib/gcc/arm-none-eabi/9.2.1/thumb/v7e-m+fp/hard/libgcc.a(_arm_unorddf2.o)
                              /home/sean/.arduino15/packages/adafruit/tools/arm-none-eabi-gcc/9-2019q4/bin/../lib/gcc/arm-none-eabi/9.2.1/../../../../arm-none-eabi/lib/thumb/v7e-m+fp/hard/libc.a(lib_a-svfprintf.o) (__aeabi_dcmpun)
/home/sean/.arduino15/packages/adafruit/tools/arm-none-eabi-gcc/9-2019q4/bin/../lib/gcc/arm-none-eabi/9.2.1/thumb/v7e-m+fp/hard/libgcc.a(_arm_fixdfsi.o)
                              /home/sean/.arduino15/packages/adafruit/tools/arm-none-eabi-gcc/9-2019q4/bin/../lib/gcc/arm-none-eabi/9.2.1/../../../../arm-none-eabi/lib/thumb/v7e-m+fp/hard/libc.a(lib_a-svfprintf.o) (__aeabi_d2iz)
/home/sean/.arduino15/packages/adafruit/tools/arm-none-eabi-gcc/9-2019q4/bin/../lib/gcc/arm-none-eabi/9.2.1/thumb/v7e-m+fp/hard/libgcc.a(_aeabi_uldivmod.o)
                              /home/sean/.arduino15/packages/adafruit/tools/arm-none-eabi-gcc/9-2019q4/bin/../lib/gcc/arm-none-eabi/9.2.1/../../../../arm-none-eabi/lib/thumb/v7e-m+fp/hard/libc.a(lib_a-svfprintf.o) (__aeabi_uldivmod)
/home/sean/.arduino15/packages/adafruit/tools/arm-none-eabi-gcc/9-2019q4/bin/../lib/gcc/arm-none-eabi/9.2.1/thumb/v7e-m+fp/hard/libgcc.a(_udivmoddi4.o)
                              /home/sean/.arduino15/packages/adafruit/tools/arm-none-eabi-gcc/9-2019q4/bin/../lib/gcc/arm-none-eabi/9.2.1/thumb/v7e-m+fp/hard/libgcc.a(_aeabi_uldivmod.o) (__udivmoddi4)
/home/sean/.arduino15/packages/adafruit/tools/arm-none-eabi-gcc/9-2019q4/bin/../lib/gcc/arm-none-eabi/9.2.1/thumb/v7e-m+fp/hard/libgcc.a(_dvmd_tls.o)
                              /home/sean/.arduino15/packages/adafruit/tools/arm-none-eabi-gcc/9-2019q4/bin/../lib/gcc/arm-none-eabi/9.2.1/thumb/v7e-m+fp/hard/libgcc.a(_aeabi_uldivmod.o) (__aeabi_ldiv0)
/home/sean/.arduino15/packages/adafruit/tools/arm-none-eabi-gcc/9-2019q4/bin/../lib/gcc/arm-none-eabi/9.2.1/../../../../arm-none-eabi/lib/thumb/v7e-m+fp/hard/libnosys.a(sbrk.o)
                              /home/sean/.arduino15/packages/adafruit/tools/arm-none-eabi-gcc/9-2019q4/bin/../lib/gcc/arm-none-eabi/9.2.1/../../../../arm-none-eabi/lib/thumb/v7e-m+fp/hard/libc.a(lib_a-sbrkr.o) (_sbrk)
/home/sean/.arduino15/packages/adafruit/tools/arm-none-eabi-gcc/9-2019q4/bin/../lib/gcc/arm-none-eabi/9.2.1/../../../../arm-none-eabi/lib/thumb/v7e-m+fp/hard/libnosys.a(_exit.o)
                              /home/sean/.arduino15/packages/adafruit/tools/arm-none-eabi-gcc/9-2019q4/bin/../lib/gcc/arm-none-eabi/9.2.1/../../../../arm-none-eabi/lib/thumb/v7e-m+fp/hard/libc.a(lib_a-exit.o) (_exit)

Allocating common symbols
Common symbol       size              file

nrf_nvic_state      0xc               /home/sean/.cache/arduino/sketches/828FCB417685B578D8734FE54D6C0719/../../cores/adafruit_nrf52_feather52832_834d5f6a6bc090e19e7c4385762c2a0a/core.a(wiring.c.o)
__lock___atexit_recursive_mutex
                    0x1               /home/sean/.arduino15/packages/adafruit/tools/arm-none-eabi-gcc/9-2019q4/bin/../lib/gcc/arm-none-eabi/9.2.1/../../../../arm-none-eabi/lib/thumb/v7e-m+fp/hard/libc.a(lib_a-lock.o)
__lock___arc4random_mutex
                    0x1               /home/sean/.arduino15/packages/adafruit/tools/arm-none-eabi-gcc/9-2019q4/bin/../lib/gcc/arm-none-eabi/9.2.1/../../../../arm-none-eabi/lib/thumb/v7e-m+fp/hard/libc.a(lib_a-lock.o)
errno               0x4               /home/sean/.arduino15/packages/adafruit/tools/arm-none-eabi-gcc/9-2019q4/bin/../lib/gcc/arm-none-eabi/9.2.1/../../../../arm-none-eabi/lib/thumb/v7e-m+fp/hard/libc.a(lib_a-reent.o)
xQueueRegistry      0x10              /home/sean/.cache/arduino/sketches/828FCB417685B578D8734FE54D6C0719/../../cores/adafruit_nrf52_feather52832_834d5f6a6bc090e19e7c4385762c2a0a/core.a(queue.c.o)
__lock___env_recursive_mutex
                    0x1               /home/sean/.arduino15/packages/adafruit/tools/arm-none-eabi-gcc/9-2019q4/bin/../lib/gcc/arm-none-eabi/9.2.1/../../../../arm-none-eabi/lib/thumb/v7e-m+fp/hard/libc.a(lib_a-lock.o)
__lock___sinit_recursive_mutex
                    0x1               /home/sean/.arduino15/packages/adafruit/tools/arm-none-eabi-gcc/9-2019q4/bin/../lib/gcc/arm-none-eabi/9.2.1/../../../../arm-none-eabi/lib/thumb/v7e-m+fp/hard/libc.a(lib_a-lock.o)
__lock___malloc_recursive_mutex
                    0x1               /home/sean/.arduino15/packages/adafruit/tools/arm-none-eabi-gcc/9-2019q4/bin/../lib/gcc/arm-none-eabi/9.2.1/../../../../arm-none-eabi/lib/thumb/v7e-m+fp/hard/libc.a(lib_a-lock.o)
__lock___at_quick_exit_mutex
                    0x1               /home/sean/.arduino15/packages/adafruit/tools/arm-none-eabi-gcc/9-2019q4/bin/../lib/gcc/arm-none-eabi/9.2.1/../../../../arm-none-eabi/lib/thumb/v7e-m+fp/hard/libc.a(lib_a-lock.o)
__lock___dd_hash_mutex
                    0x1               /home/sean/.arduino15/packages/adafruit/tools/arm-none-eabi-gcc/9-2019q4/bin/../lib/gcc/arm-none-eabi/9.2.1/../../../../arm-none-eabi/lib/thumb/v7e-m+fp/hard/libc.a(lib_a-lock.o)
__lock___tz_mutex   0x1               /home/sean/.arduino15/packages/adafruit/tools/arm-none-eabi-gcc/9-2019q4/bin/../lib/gcc/arm-none-eabi/9.2.1/../../../../arm-none-eabi/lib/thumb/v7e-m+fp/hard/libc.a(lib_a-lock.o)
__lock___sfp_recursive_mutex
                    0x1               /home/sean/.arduino15/packages/adafruit/tools/arm-none-eabi-gcc/9-2019q4/bin/../lib/gcc/arm-none-eabi/9.2.1/../../../../arm-none-eabi/lib/thumb/v7e-m+fp/hard/libc.a(lib_a-lock.o)

Discarded input sections

 .text          0x0000000000000000        0x0 /home/sean/.arduino15/packages/adafruit/tools/arm-none-eabi-gcc/9-2019q4/bin/../lib/gcc/arm-none-eabi/9.2.1/thumb/v7e-m+fp/hard/crtfastmath.o
 .data          0x0000000000000000        0x0 /home/sean/.arduino15/packages/adafruit/tools/arm-none-eabi-gcc/9-2019q4/bin/../lib/gcc/arm-none-eabi/9.2.1/thumb/v7e-m+fp/hard/crtfastmath.o
 .bss           0x0000000000000000        0x0 /home/sean/.arduino15/packages/adafruit/tools/arm-none-eabi-gcc/9-2019q4/bin/../lib/gcc/arm-none-eabi/9.2.1/thumb/v7e-m+fp/hard/crtfastmath.o
 .text          0x0000000000000000        0x0 /home/sean/.arduino15/packages/adafruit/tools/arm-none-eabi-gcc/9-2019q4/bin/../lib/gcc/arm-none-eabi/9.2.1/thumb/v7e-m+fp/hard/crti.o
 .data          0x0000000000000000        0x0 /home/sean/.arduino15/packages/adafruit/tools/arm-none-eabi-gcc/9-2019q4/bin/../lib/gcc/arm-none-eabi/9.2.1/thumb/v7e-m+fp/hard/crti.o
 .bss           0x0000000000000000        0x0 /home/sean/.arduino15/packages/adafruit/tools/arm-none-eabi-gcc/9-2019q4/bin/../lib/gcc/arm-none-eabi/9.2.1/thumb/v7e-m+fp/hard/crti.o
 .data          0x0000000000000000        0x4 /home/sean/.arduino15/packages/adafruit/tools/arm-none-eabi-gcc/9-2019q4/bin/../lib/gcc/arm-none-eabi/9.2.1/thumb/v7e-m+fp/hard/crtbegin.o
 .data          0x0000000000000000        0x0 /home/sean/.arduino15/packages/adafruit/tools/arm-none-eabi-gcc/9-2019q4/bin/../lib/gcc/arm-none-eabi/9.2.1/../../../../arm-none-eabi/lib/thumb/v7e-m+fp/hard/crt0.o
 .bss           0x0000000000000000        0x0 /home/sean/.arduino15/packages/adafruit/tools/arm-none-eabi-gcc/9-2019q4/bin/../lib/gcc/arm-none-eabi/9.2.1/../../../../arm-none-eabi/lib/thumb/v7e-m+fp/hard/crt0.o
 .ARM.extab     0x0000000000000000        0x0 /home/sean/.arduino15/packages/adafruit/tools/arm-none-eabi-gcc/9-2019q4/bin/../lib/gcc/arm-none-eabi/9.2.1/../../../../arm-none-eabi/lib/thumb/v7e-m+fp/hard/crt0.o
 .text          0x0000000000000000        0x0 /home/sean/.cache/arduino/sketches/828FCB417685B578D8734FE54D6C0719/sketch/keyswitch.c.o
 .data          0x0000000000000000        0x0 /home/sean/.cache/arduino/sketches/828FCB417685B578D8734FE54D6C0719/sketch/keyswitch.c.o
 .bss           0x0000000000000000        0x0 /home/sean/.cache/arduino/sketches/828FCB417685B578D8734FE54D6C0719/sketch/keyswitch.c.o
 .debug_line    0x0000000000000000        0x0 /home/sean/.cache/arduino/sketches/828FCB417685B578D8734FE54D6C0719/sketch/keyswitch.c.o
 .debug_str     0x0000000000000000      0x16e /home/sean/.cache/arduino/sketches/828FCB417685B578D8734FE54D6C0719/sketch/keyswitch.c.o
 .comment       0x0000000000000000       0x7a /home/sean/.cache/arduino/sketches/828FCB417685B578D8734FE54D6C0719/sketch/keyswitch.c.o
 .ARM.attributes
                0x0000000000000000       0x35 /home/sean/.cache/arduino/sketches/828FCB417685B578D8734FE54D6C0719/sketch/keyswitch.c.o
 .text          0x0000000000000000        0x0 /home/sean/.cache/arduino/sketches/828FCB417685B578D8734FE54D6C0719/sketch/led.c.o
 .data          0x0000000000000000        0x0 /home/sean/.cache/arduino/sketches/828FCB417685B578D8734FE54D6C0719/sketch/led.c.o
 .bss           0x0000000000000000        0x0 /home/sean/.cache/arduino/sketches/828FCB417685B578D8734FE54D6C0719/sketch/led.c.o
 .text          0x0000000000000000        0x0 /home/sean/.cache/arduino/sketches/828FCB417685B578D8734FE54D6C0719/sketch/macro-blues.ino.cpp.o
 .data          0x0000000000000000        0x0 /home/sean/.cache/arduino/sketches/828FCB417685B578D8734FE54D6C0719/sketch/macro-blues.ino.cpp.o
 .bss           0x0000000000000000        0x0 /home/sean/.cache/arduino/sketches/828FCB417685B578D8734FE54D6C0719/sketch/macro-blues.ino.cpp.o
 .text          0x0000000000000000        0x0 /home/sean/.cache/arduino/sketches/828FCB417685B578D8734FE54D6C0719/core/variant.cpp.o
 .data          0x0000000000000000        0x0 /home/sean/.cache/arduino/sketches/828FCB417685B578D8734FE54D6C0719/core/variant.cpp.o
 .bss           0x0000000000000000        0x0 /home/sean/.cache/arduino/sketches/828FCB417685B578D8734FE54D6C0719/core/variant.cpp.o
 .data          0x0000000000000000        0x0 /home/sean/.cache/arduino/sketches/828FCB417685B578D8734FE54D6C0719/../../cores/adafruit_nrf52_feather52832_834d5f6a6bc090e19e7c4385762c2a0a/core.a(gcc_startup_nrf52.S.o)
 .bss           0x0000000000000000        0x0 /home/sean/.cache/arduino/sketches/828FCB417685B578D8734FE54D6C0719/../../cores/adafruit_nrf52_feather52832_834d5f6a6bc090e19e7c4385762c2a0a/core.a(gcc_startup_nrf52.S.o)
 .text          0x0000000000000000        0x0 /home/sean/.cache/arduino/sketches/828FCB417685B578D8734FE54D6C0719/../../cores/adafruit_nrf52_feather52832_834d5f6a6bc090e19e7c4385762c2a0a/core.a(main.cpp.o)
 .data          0x0000000000000000        0x0 /home/sean/.cache/arduino/sketches/828FCB417685B578D8734FE54D6C0719/../../cores/adafruit_nrf52_feather52832_834d5f6a6bc090e19e7c4385762c2a0a/core.a(main.cpp.o)
 .bss           0x0000000000000000        0x0 /home/sean/.cache/arduino/sketches/828FCB417685B578D8734FE54D6C0719/../../cores/adafruit_nrf52_feather52832_834d5f6a6bc090e19e7c4385762c2a0a/core.a(main.cpp.o)
 .text._Z11initVariantv
                0x0000000000000000        0x4 /home/sean/.cache/arduino/sketches/828FCB417685B578D8734FE54D6C0719/../../cores/adafruit_nrf52_feather52832_834d5f6a6bc090e19e7c4385762c2a0a/core.a(main.cpp.o)
 .text.suspendLoop
                0x0000000000000000        0xc /home/sean/.cache/arduino/sketches/828FCB417685B578D8734FE54D6C0719/../../cores/adafruit_nrf52_feather52832_834d5f6a6bc090e19e7c4385762c2a0a/core.a(main.cpp.o)
 .text.resumeLoop
                0x0000000000000000       0x24 /home/sean/.cache/arduino/sketches/828FCB417685B578D8734FE54D6C0719/../../cores/adafruit_nrf52_feather52832_834d5f6a6bc090e19e7c4385762c2a0a/core.a(main.cpp.o)
 .text._write   0x0000000000000000       0x14 /home/sean/.cache/arduino/sketches/828FCB417685B578D8734FE54D6C0719/../../cores/adafruit_nrf52_feather52832_834d5f6a6bc090e19e7c4385762c2a0a/core.a(main.cpp.o)
 .text          0x0000000000000000        0x0 /home/sean/.cache/arduino/sketches/828FCB417685B578D8734FE54D6C0719/../../cores/adafruit_nrf52_feather52832_834d5f6a6bc090e19e7c4385762c2a0a/core.a(system_nrf52.c.o)
 .data          0x0000000000000000        0x0 /home/sean/.cache/arduino/sketches/828FCB417685B578D8734FE54D6C0719/../../cores/adafruit_nrf52_feather52832_834d5f6a6bc090e19e7c4385762c2a0a/core.a(system_nrf52.c.o)
 .bss           0x0000000000000000        0x0 /home/sean/.cache/arduino/sketches/828FCB417685B578D8734FE54D6C0719/../../cores/adafruit_nrf52_feather52832_834d5f6a6bc090e19e7c4385762c2a0a/core.a(system_nrf52.c.o)
 .text.SystemCoreClockUpdate
                0x0000000000000000       0x10 /home/sean/.cache/arduino/sketches/828FCB417685B578D8734FE54D6C0719/../../cores/adafruit_nrf52_feather52832_834d5f6a6bc090e19e7c4385762c2a0a/core.a(system_nrf52.c.o)
 .text          0x0000000000000000        0x0 /home/sean/.cache/arduino/sketches/828FCB417685B578D8734FE54D6C0719/../../cores/adafruit_nrf52_feather52832_834d5f6a6bc090e19e7c4385762c2a0a/core.a(rtos.cpp.o)
 .data          0x0000000000000000        0x0 /home/sean/.cache/arduino/sketches/828FCB417685B578D8734FE54D6C0719/../../cores/adafruit_nrf52_feather52832_834d5f6a6bc090e19e7c4385762c2a0a/core.a(rtos.cpp.o)
 .bss           0x0000000000000000        0x0 /home/sean/.cache/arduino/sketches/828FCB417685B578D8734FE54D6C0719/../../cores/adafruit_nrf52_feather52832_834d5f6a6bc090e19e7c4385762c2a0a/core.a(rtos.cpp.o)
 .text._ZL14_redirect_taskPv
                0x0000000000000000       0x20 /home/sean/.cache/arduino/sketches/828FCB417685B578D8734FE54D6C0719/../../cores/adafruit_nrf52_feather52832_834d5f6a6bc090e19e7c4385762c2a0a/core.a(rtos.cpp.o)
 .text._ZN13SchedulerRTOSC2Ev
                0x0000000000000000        0x4 /home/sean/.cache/arduino/sketches/828FCB417685B578D8734FE54D6C0719/../../cores/adafruit_nrf52_feather52832_834d5f6a6bc090e19e7c4385762c2a0a/core.a(rtos.cpp.o)
 .rodata._ZN13SchedulerRTOS9startLoopEPFvvEmmPKc.str1.4
                0x0000000000000000        0xd /home/sean/.cache/arduino/sketches/828FCB417685B578D8734FE54D6C0719/../../cores/adafruit_nrf52_feather52832_834d5f6a6bc090e19e7c4385762c2a0a/core.a(rtos.cpp.o)
 .text._ZN13SchedulerRTOS9startLoopEPFvvEmmPKc
                0x0000000000000000       0x38 /home/sean/.cache/arduino/sketches/828FCB417685B578D8734FE54D6C0719/../../cores/adafruit_nrf52_feather52832_834d5f6a6bc090e19e7c4385762c2a0a/core.a(rtos.cpp.o)
 .bss.Scheduler
                0x0000000000000000        0x1 /home/sean/.cache/arduino/sketches/828FCB417685B578D8734FE54D6C0719/../../cores/adafruit_nrf52_feather52832_834d5f6a6bc090e19e7c4385762c2a0a/core.a(rtos.cpp.o)
 .text          0x0000000000000000        0x0 /home/sean/.cache/arduino/sketches/828FCB417685B578D8734FE54D6C0719/../../cores/adafruit_nrf52_feather52832_834d5f6a6bc090e19e7c4385762c2a0a/core.a(AdaCallback.c.o)
 .data          0x0000000000000000        0x0 /home/sean/.cache/arduino/sketches/828FCB417685B578D8734FE54D6C0719/../../cores/adafruit_nrf52_feather52832_834d5f6a6bc090e19e7c4385762c2a0a/core.a(AdaCallback.c.o)
 .bss           0x0000000000000000        0x0 /home/sean/.cache/arduino/sketches/828FCB417685B578D8734FE54D6C0719/../../cores/adafruit_nrf52_feather52832_834d5f6a6bc090e19e7c4385762c2a0a/core.a(AdaCallback.c.o)
 .text.ada_callback_queue
                0x0000000000000000       0xd8 /home/sean/.cache/arduino/sketches/828FCB417685B578D8734FE54D6C0719/../../cores/adafruit_nrf52_feather52832_834d5f6a6bc090e19e7c4385762c2a0a/core.a(AdaCallback.c.o)
 .text.ada_callback_invoke
                0x0000000000000000       0x8c /home/sean/.cache/arduino/sketches/828FCB417685B578D8734FE54D6C0719/../../cores/adafruit_nrf52_feather52832_834d5f6a6bc090e19e7c4385762c2a0a/core.a(AdaCallback.c.o)
 .text.ada_callback_queue_resize
                0x0000000000000000       0x5c /home/sean/.cache/arduino/sketches/828FCB417685B578D8734FE54D6C0719/../../cores/adafruit_nrf52_feather52832_834d5f6a6bc090e19e7c4385762c2a0a/core.a(AdaCallback.c.o)
 .text          0x0000000000000000        0x0 /home/sean/.cache/arduino/sketches/828FCB417685B578D8734FE54D6C0719/../../cores/adafruit_nrf52_feather52832_834d5f6a6bc090e19e7c4385762c2a0a/core.a(wiring.c.o)
 .data          0x0000000000000000        0x0 /home/sean/.cache/arduino/sketches/828FCB417685B578D8734FE54D6C0719/../../cores/adafruit_nrf52_feather52832_834d5f6a6bc090e19e7c4385762c2a0a/core.a(wiring.c.o)
 .bss           0x0000000000000000        0x0 /home/sean/.cache/arduino/sketches/828FCB417685B578D8734FE54D6C0719/../../cores/adafruit_nrf52_feather52832_834d5f6a6bc090e19e7c4385762c2a0a/core.a(wiring.c.o)
 .text.sd_power_system_off
                0x0000000000000000        0x4 /home/sean/.cache/arduino/sketches/828FCB417685B578D8734FE54D6C0719/../../cores/adafruit_nrf52_feather52832_834d5f6a6bc090e19e7c4385762c2a0a/core.a(wiring.c.o)
 .text.sd_app_evt_wait
                0x0000000000000000        0x4 /home/sean/.cache/arduino/sketches/828FCB417685B578D8734FE54D6C0719/../../cores/adafruit_nrf52_feather52832_834d5f6a6bc090e19e7c4385762c2a0a/core.a(wiring.c.o)
 .text.sd_temp_get
                0x0000000000000000        0x4 /home/sean/.cache/arduino/sketches/828FCB417685B578D8734FE54D6C0719/../../cores/adafruit_nrf52_feather52832_834d5f6a6bc090e19e7c4385762c2a0a/core.a(wiring.c.o)
 .text.sd_softdevice_disable
                0x0000000000000000        0x4 /home/sean/.cache/arduino/sketches/828FCB417685B578D8734FE54D6C0719/../../cores/adafruit_nrf52_feather52832_834d5f6a6bc090e19e7c4385762c2a0a/core.a(wiring.c.o)
 .text.sd_softdevice_is_enabled
                0x0000000000000000        0x4 /home/sean/.cache/arduino/sketches/828FCB417685B578D8734FE54D6C0719/../../cores/adafruit_nrf52_feather52832_834d5f6a6bc090e19e7c4385762c2a0a/core.a(wiring.c.o)
 .text.reset_mcu
                0x0000000000000000       0x4c /home/sean/.cache/arduino/sketches/828FCB417685B578D8734FE54D6C0719/../../cores/adafruit_nrf52_feather52832_834d5f6a6bc090e19e7c4385762c2a0a/core.a(wiring.c.o)
 .text.readResetReason
                0x0000000000000000        0xc /home/sean/.cache/arduino/sketches/828FCB417685B578D8734FE54D6C0719/../../cores/adafruit_nrf52_feather52832_834d5f6a6bc090e19e7c4385762c2a0a/core.a(wiring.c.o)
 .text.enterUf2Dfu
                0x0000000000000000        0x8 /home/sean/.cache/arduino/sketches/828FCB417685B578D8734FE54D6C0719/../../cores/adafruit_nrf52_feather52832_834d5f6a6bc090e19e7c4385762c2a0a/core.a(wiring.c.o)
 .text.enterSerialDfu
                0x0000000000000000        0x8 /home/sean/.cache/arduino/sketches/828FCB417685B578D8734FE54D6C0719/../../cores/adafruit_nrf52_feather52832_834d5f6a6bc090e19e7c4385762c2a0a/core.a(wiring.c.o)
 .text.enterOTADfu
                0x0000000000000000        0x8 /home/sean/.cache/arduino/sketches/828FCB417685B578D8734FE54D6C0719/../../cores/adafruit_nrf52_feather52832_834d5f6a6bc090e19e7c4385762c2a0a/core.a(wiring.c.o)
 .text.waitForEvent
                0x0000000000000000       0x30 /home/sean/.cache/arduino/sketches/828FCB417685B578D8734FE54D6C0719/../../cores/adafruit_nrf52_feather52832_834d5f6a6bc090e19e7c4385762c2a0a/core.a(wiring.c.o)
 .text.systemOff
                0x0000000000000000       0x64 /home/sean/.cache/arduino/sketches/828FCB417685B578D8734FE54D6C0719/../../cores/adafruit_nrf52_feather52832_834d5f6a6bc090e19e7c4385762c2a0a/core.a(wiring.c.o)
 .text.readCPUTemperature
                0x0000000000000000       0x5c /home/sean/.cache/arduino/sketches/828FCB417685B578D8734FE54D6C0719/../../cores/adafruit_nrf52_feather52832_834d5f6a6bc090e19e7c4385762c2a0a/core.a(wiring.c.o)
 .text          0x0000000000000000        0x0 /home/sean/.cache/arduino/sketches/828FCB417685B578D8734FE54D6C0719/../../cores/adafruit_nrf52_feather52832_834d5f6a6bc090e19e7c4385762c2a0a/core.a(wiring_digital.c.o)
 .data          0x0000000000000000        0x0 /home/sean/.cache/arduino/sketches/828FCB417685B578D8734FE54D6C0719/../../cores/adafruit_nrf52_feather52832_834d5f6a6bc090e19e7c4385762c2a0a/core.a(wiring_digital.c.o)
 .bss           0x0000000000000000        0x0 /home/sean/.cache/arduino/sketches/828FCB417685B578D8734FE54D6C0719/../../cores/adafruit_nrf52_feather52832_834d5f6a6bc090e19e7c4385762c2a0a/core.a(wiring_digital.c.o)
 .text.digitalWrite
                0x0000000000000000       0x2c /home/sean/.cache/arduino/sketches/828FCB417685B578D8734FE54D6C0719/../../cores/adafruit_nrf52_feather52832_834d5f6a6bc090e19e7c4385762c2a0a/core.a(wiring_digital.c.o)
 .text.digitalRead
                0x0000000000000000       0x34 /home/sean/.cache/arduino/sketches/828FCB417685B578D8734FE54D6C0719/../../cores/adafruit_nrf52_feather52832_834d5f6a6bc090e19e7c4385762c2a0a/core.a(wiring_digital.c.o)
 .text.digitalToggle
                0x0000000000000000       0x40 /home/sean/.cache/arduino/sketches/828FCB417685B578D8734FE54D6C0719/../../cores/adafruit_nrf52_feather52832_834d5f6a6bc090e19e7c4385762c2a0a/core.a(wiring_digital.c.o)
 .text.ledOn    0x0000000000000000       0x1c /home/sean/.cache/arduino/sketches/828FCB417685B578D8734FE54D6C0719/../../cores/adafruit_nrf52_feather52832_834d5f6a6bc090e19e7c4385762c2a0a/core.a(wiring_digital.c.o)
 .group         0x0000000000000000        0x8 /home/sean/.cache/arduino/sketches/828FCB417685B578D8734FE54D6C0719/../../cores/adafruit_nrf52_feather52832_834d5f6a6bc090e19e7c4385762c2a0a/core.a(Uart.cpp.o)
 .text          0x0000000000000000        0x0 /home/sean/.cache/arduino/sketches/828FCB417685B578D8734FE54D6C0719/../../cores/adafruit_nrf52_feather52832_834d5f6a6bc090e19e7c4385762c2a0a/core.a(Uart.cpp.o)
 .data          0x0000000000000000        0x0 /home/sean/.cache/arduino/sketches/828FCB417685B578D8734FE54D6C0719/../../cores/adafruit_nrf52_feather52832_834d5f6a6bc090e19e7c4385762c2a0a/core.a(Uart.cpp.o)
 .bss           0x0000000000000000        0x0 /home/sean/.cache/arduino/sketches/828FCB417685B578D8734FE54D6C0719/../../cores/adafruit_nrf52_feather52832_834d5f6a6bc090e19e7c4385762c2a0a/core.a(Uart.cpp.o)
 .text._ZN4UartC2EP14NRF_UARTE_Type9IRQn_Typehh
                0x0000000000000000       0x54 /home/sean/.cache/arduino/sketches/828FCB417685B578D8734FE54D6C0719/../../cores/adafruit_nrf52_feather52832_834d5f6a6bc090e19e7c4385762c2a0a/core.a(Uart.cpp.o)
 .text._ZN4UartC2EP14NRF_UARTE_Type9IRQn_Typehhhh
                0x0000000000000000       0x74 /home/sean/.cache/arduino/sketches/828FCB417685B578D8734FE54D6C0719/../../cores/adafruit_nrf52_feather52832_834d5f6a6bc090e19e7c4385762c2a0a/core.a(Uart.cpp.o)
 .text._ZN4Uart7setPinsEhh
                0x0000000000000000       0x18 /home/sean/.cache/arduino/sketches/828FCB417685B578D8734FE54D6C0719/../../cores/adafruit_nrf52_feather52832_834d5f6a6bc090e19e7c4385762c2a0a/core.a(Uart.cpp.o)
 .text._ZN4Uart10IrqHandlerEv
                0x0000000000000000       0x44 /home/sean/.cache/arduino/sketches/828FCB417685B578D8734FE54D6C0719/../../cores/adafruit_nrf52_feather52832_834d5f6a6bc090e19e7c4385762c2a0a/core.a(Uart.cpp.o)
 .text          0x0000000000000000        0x0 /home/sean/.cache/arduino/sketches/828FCB417685B578D8734FE54D6C0719/../../cores/adafruit_nrf52_feather52832_834d5f6a6bc090e19e7c4385762c2a0a/core.a(heap_3.c.o)
 .data          0x0000000000000000        0x0 /home/sean/.cache/arduino/sketches/828FCB417685B578D8734FE54D6C0719/../../cores/adafruit_nrf52_feather52832_834d5f6a6bc090e19e7c4385762c2a0a/core.a(heap_3.c.o)
 .bss           0x0000000000000000        0x0 /home/sean/.cache/arduino/sketches/828FCB417685B578D8734FE54D6C0719/../../cores/adafruit_nrf52_feather52832_834d5f6a6bc090e19e7c4385762c2a0a/core.a(heap_3.c.o)
 .text.__wrap_malloc
                0x0000000000000000       0x34 /home/sean/.cache/arduino/sketches/828FCB417685B578D8734FE54D6C0719/../../cores/adafruit_nrf52_feather52832_834d5f6a6bc090e19e7c4385762c2a0a/core.a(heap_3.c.o)
 .text.__wrap_realloc
                0x0000000000000000       0x40 /home/sean/.cache/arduino/sketches/828FCB417685B578D8734FE54D6C0719/../../cores/adafruit_nrf52_feather52832_834d5f6a6bc090e19e7c4385762c2a0a/core.a(heap_3.c.o)
 .text.__wrap_calloc
                0x0000000000000000       0x40 /home/sean/.cache/arduino/sketches/828FCB417685B578D8734FE54D6C0719/../../cores/adafruit_nrf52_feather52832_834d5f6a6bc090e19e7c4385762c2a0a/core.a(heap_3.c.o)
 .text.pvPortRealloc
                0x0000000000000000       0x2c /home/sean/.cache/arduino/sketches/828FCB417685B578D8734FE54D6C0719/../../cores/adafruit_nrf52_feather52832_834d5f6a6bc090e19e7c4385762c2a0a/core.a(heap_3.c.o)
 .text.pvPortCalloc
                0x0000000000000000       0x2c /home/sean/.cache/arduino/sketches/828FCB417685B578D8734FE54D6C0719/../../cores/adafruit_nrf52_feather52832_834d5f6a6bc090e19e7c4385762c2a0a/core.a(heap_3.c.o)
 .text          0x0000000000000000        0x0 /home/sean/.cache/arduino/sketches/828FCB417685B578D8734FE54D6C0719/../../cores/adafruit_nrf52_feather52832_834d5f6a6bc090e19e7c4385762c2a0a/core.a(queue.c.o)
 .data          0x0000000000000000        0x0 /home/sean/.cache/arduino/sketches/828FCB417685B578D8734FE54D6C0719/../../cores/adafruit_nrf52_feather52832_834d5f6a6bc090e19e7c4385762c2a0a/core.a(queue.c.o)
 .bss           0x0000000000000000        0x0 /home/sean/.cache/arduino/sketches/828FCB417685B578D8734FE54D6C0719/../../cores/adafruit_nrf52_feather52832_834d5f6a6bc090e19e7c4385762c2a0a/core.a(queue.c.o)
 .text.xQueueGenericReset
                0x0000000000000000       0x80 /home/sean/.cache/arduino/sketches/828FCB417685B578D8734FE54D6C0719/../../cores/adafruit_nrf52_feather52832_834d5f6a6bc090e19e7c4385762c2a0a/core.a(queue.c.o)
 .text.xQueueCreateCountingSemaphoreStatic
                0x0000000000000000       0x5c /home/sean/.cache/arduino/sketches/828FCB417685B578D8734FE54D6C0719/../../cores/adafruit_nrf52_feather52832_834d5f6a6bc090e19e7c4385762c2a0a/core.a(queue.c.o)
 .text.xQueueCreateCountingSemaphore
                0x0000000000000000       0x64 /home/sean/.cache/arduino/sketches/828FCB417685B578D8734FE54D6C0719/../../cores/adafruit_nrf52_feather52832_834d5f6a6bc090e19e7c4385762c2a0a/core.a(queue.c.o)
 .text.xQueueCreateMutexStatic
                0x0000000000000000       0x6c /home/sean/.cache/arduino/sketches/828FCB417685B578D8734FE54D6C0719/../../cores/adafruit_nrf52_feather52832_834d5f6a6bc090e19e7c4385762c2a0a/core.a(queue.c.o)
 .text.xQueueGiveMutexRecursive
                0x0000000000000000       0x2c /home/sean/.cache/arduino/sketches/828FCB417685B578D8734FE54D6C0719/../../cores/adafruit_nrf52_feather52832_834d5f6a6bc090e19e7c4385762c2a0a/core.a(queue.c.o)
 .text.xQueueCreateMutex
                0x0000000000000000       0x70 /home/sean/.cache/arduino/sketches/828FCB417685B578D8734FE54D6C0719/../../cores/adafruit_nrf52_feather52832_834d5f6a6bc090e19e7c4385762c2a0a/core.a(queue.c.o)
 .text.xQueueGenericSendFromISR
                0x0000000000000000       0xfc /home/sean/.cache/arduino/sketches/828FCB417685B578D8734FE54D6C0719/../../cores/adafruit_nrf52_feather52832_834d5f6a6bc090e19e7c4385762c2a0a/core.a(queue.c.o)
 .text.xQueueTakeMutexRecursive
                0x0000000000000000       0x2c /home/sean/.cache/arduino/sketches/828FCB417685B578D8734FE54D6C0719/../../cores/adafruit_nrf52_feather52832_834d5f6a6bc090e19e7c4385762c2a0a/core.a(queue.c.o)
 .text.xQueuePeek
                0x0000000000000000      0x2b0 /home/sean/.cache/arduino/sketches/828FCB417685B578D8734FE54D6C0719/../../cores/adafruit_nrf52_feather52832_834d5f6a6bc090e19e7c4385762c2a0a/core.a(queue.c.o)
 .text.xQueueReceiveFromISR
                0x0000000000000000       0x80 /home/sean/.cache/arduino/sketches/828FCB417685B578D8734FE54D6C0719/../../cores/adafruit_nrf52_feather52832_834d5f6a6bc090e19e7c4385762c2a0a/core.a(queue.c.o)
 .text.xQueuePeekFromISR
                0x0000000000000000       0x40 /home/sean/.cache/arduino/sketches/828FCB417685B578D8734FE54D6C0719/../../cores/adafruit_nrf52_feather52832_834d5f6a6bc090e19e7c4385762c2a0a/core.a(queue.c.o)
 .text.uxQueueSpacesAvailable
                0x0000000000000000       0x1c /home/sean/.cache/arduino/sketches/828FCB417685B578D8734FE54D6C0719/../../cores/adafruit_nrf52_feather52832_834d5f6a6bc090e19e7c4385762c2a0a/core.a(queue.c.o)
 .text.uxQueueMessagesWaitingFromISR
                0x0000000000000000        0x4 /home/sean/.cache/arduino/sketches/828FCB417685B578D8734FE54D6C0719/../../cores/adafruit_nrf52_feather52832_834d5f6a6bc090e19e7c4385762c2a0a/core.a(queue.c.o)
 .text.uxQueueGetQueueNumber
                0x0000000000000000        0x4 /home/sean/.cache/arduino/sketches/828FCB417685B578D8734FE54D6C0719/../../cores/adafruit_nrf52_feather52832_834d5f6a6bc090e19e7c4385762c2a0a/core.a(queue.c.o)
 .text.vQueueSetQueueNumber
                0x0000000000000000        0x4 /home/sean/.cache/arduino/sketches/828FCB417685B578D8734FE54D6C0719/../../cores/adafruit_nrf52_feather52832_834d5f6a6bc090e19e7c4385762c2a0a/core.a(queue.c.o)
 .text.ucQueueGetQueueType
                0x0000000000000000        0x8 /home/sean/.cache/arduino/sketches/828FCB417685B578D8734FE54D6C0719/../../cores/adafruit_nrf52_feather52832_834d5f6a6bc090e19e7c4385762c2a0a/core.a(queue.c.o)
 .text.xQueueIsQueueEmptyFromISR
                0x0000000000000000        0xc /home/sean/.cache/arduino/sketches/828FCB417685B578D8734FE54D6C0719/../../cores/adafruit_nrf52_feather52832_834d5f6a6bc090e19e7c4385762c2a0a/core.a(queue.c.o)
 .text.xQueueIsQueueFullFromISR
                0x0000000000000000       0x10 /home/sean/.cache/arduino/sketches/828FCB417685B578D8734FE54D6C0719/../../cores/adafruit_nrf52_feather52832_834d5f6a6bc090e19e7c4385762c2a0a/core.a(queue.c.o)
 .text.pcQueueGetName
                0x0000000000000000       0x24 /home/sean/.cache/arduino/sketches/828FCB417685B578D8734FE54D6C0719/../../cores/adafruit_nrf52_feather52832_834d5f6a6bc090e19e7c4385762c2a0a/core.a(queue.c.o)
 .text.vQueueUnregisterQueue
                0x0000000000000000       0x28 /home/sean/.cache/arduino/sketches/828FCB417685B578D8734FE54D6C0719/../../cores/adafruit_nrf52_feather52832_834d5f6a6bc090e19e7c4385762c2a0a/core.a(queue.c.o)
 .text          0x0000000000000000        0x0 /home/sean/.cache/arduino/sketches/828FCB417685B578D8734FE54D6C0719/../../cores/adafruit_nrf52_feather52832_834d5f6a6bc090e19e7c4385762c2a0a/core.a(tasks.c.o)
 .data          0x0000000000000000        0x0 /home/sean/.cache/arduino/sketches/828FCB417685B578D8734FE54D6C0719/../../cores/adafruit_nrf52_feather52832_834d5f6a6bc090e19e7c4385762c2a0a/core.a(tasks.c.o)
 .bss           0x0000000000000000        0x0 /home/sean/.cache/arduino/sketches/828FCB417685B578D8734FE54D6C0719/../../cores/adafruit_nrf52_feather52832_834d5f6a6bc090e19e7c4385762c2a0a/core.a(tasks.c.o)
 .text.vTaskDelete
                0x0000000000000000       0xe0 /home/sean/.cache/arduino/sketches/828FCB417685B578D8734FE54D6C0719/../../cores/adafruit_nrf52_feather52832_834d5f6a6bc090e19e7c4385762c2a0a/core.a(tasks.c.o)
 .text.eTaskGetState
                0x0000000000000000       0x68 /home/sean/.cache/arduino/sketches/828FCB417685B578D8734FE54D6C0719/../../cores/adafruit_nrf52_feather52832_834d5f6a6bc090e19e7c4385762c2a0a/core.a(tasks.c.o)
 .text.uxTaskPriorityGet
                0x0000000000000000       0x24 /home/sean/.cache/arduino/sketches/828FCB417685B578D8734FE54D6C0719/../../cores/adafruit_nrf52_feather52832_834d5f6a6bc090e19e7c4385762c2a0a/core.a(tasks.c.o)
 .text.uxTaskPriorityGetFromISR
                0x0000000000000000       0x24 /home/sean/.cache/arduino/sketches/828FCB417685B578D8734FE54D6C0719/../../cores/adafruit_nrf52_feather52832_834d5f6a6bc090e19e7c4385762c2a0a/core.a(tasks.c.o)
 .text.vTaskPrioritySet
                0x0000000000000000       0xc0 /home/sean/.cache/arduino/sketches/828FCB417685B578D8734FE54D6C0719/../../cores/adafruit_nrf52_feather52832_834d5f6a6bc090e19e7c4385762c2a0a/core.a(tasks.c.o)
 .text.vTaskSuspend
                0x0000000000000000      0x180 /home/sean/.cache/arduino/sketches/828FCB417685B578D8734FE54D6C0719/../../cores/adafruit_nrf52_feather52832_834d5f6a6bc090e19e7c4385762c2a0a/core.a(tasks.c.o)
 .text.vTaskResume
                0x0000000000000000       0x94 /home/sean/.cache/arduino/sketches/828FCB417685B578D8734FE54D6C0719/../../cores/adafruit_nrf52_feather52832_834d5f6a6bc090e19e7c4385762c2a0a/core.a(tasks.c.o)
 .text.xTaskResumeFromISR
                0x0000000000000000       0x98 /home/sean/.cache/arduino/sketches/828FCB417685B578D8734FE54D6C0719/../../cores/adafruit_nrf52_feather52832_834d5f6a6bc090e19e7c4385762c2a0a/core.a(tasks.c.o)
 .text.vTaskEndScheduler
                0x0000000000000000       0x14 /home/sean/.cache/arduino/sketches/828FCB417685B578D8734FE54D6C0719/../../cores/adafruit_nrf52_feather52832_834d5f6a6bc090e19e7c4385762c2a0a/core.a(tasks.c.o)
 .text.xTaskGetTickCountFromISR
                0x0000000000000000        0xc /home/sean/.cache/arduino/sketches/828FCB417685B578D8734FE54D6C0719/../../cores/adafruit_nrf52_feather52832_834d5f6a6bc090e19e7c4385762c2a0a/core.a(tasks.c.o)
 .text.uxTaskGetNumberOfTasks
                0x0000000000000000        0xc /home/sean/.cache/arduino/sketches/828FCB417685B578D8734FE54D6C0719/../../cores/adafruit_nrf52_feather52832_834d5f6a6bc090e19e7c4385762c2a0a/core.a(tasks.c.o)
 .text.pcTaskGetName
                0x0000000000000000       0x14 /home/sean/.cache/arduino/sketches/828FCB417685B578D8734FE54D6C0719/../../cores/adafruit_nrf52_feather52832_834d5f6a6bc090e19e7c4385762c2a0a/core.a(tasks.c.o)
 .text.xTaskGetIdleTaskHandle
                0x0000000000000000        0xc /home/sean/.cache/arduino/sketches/828FCB417685B578D8734FE54D6C0719/../../cores/adafruit_nrf52_feather52832_834d5f6a6bc090e19e7c4385762c2a0a/core.a(tasks.c.o)
 .text.vTaskDelayUntil
                0x0000000000000000       0x9c /home/sean/.cache/arduino/sketches/828FCB417685B578D8734FE54D6C0719/../../cores/adafruit_nrf52_feather52832_834d5f6a6bc090e19e7c4385762c2a0a/core.a(tasks.c.o)
 .text.vTaskDelay
                0x0000000000000000       0x84 /home/sean/.cache/arduino/sketches/828FCB417685B578D8734FE54D6C0719/../../cores/adafruit_nrf52_feather52832_834d5f6a6bc090e19e7c4385762c2a0a/core.a(tasks.c.o)
 .text.prvListTasksWithinSingleList.part.0
                0x0000000000000000       0xec /home/sean/.cache/arduino/sketches/828FCB417685B578D8734FE54D6C0719/../../cores/adafruit_nrf52_feather52832_834d5f6a6bc090e19e7c4385762c2a0a/core.a(tasks.c.o)
 .text.uxTaskGetSystemState
                0x0000000000000000       0xe8 /home/sean/.cache/arduino/sketches/828FCB417685B578D8734FE54D6C0719/../../cores/adafruit_nrf52_feather52832_834d5f6a6bc090e19e7c4385762c2a0a/core.a(tasks.c.o)
 .text.vTaskPlaceOnUnorderedEventList
                0x0000000000000000       0x80 /home/sean/.cache/arduino/sketches/828FCB417685B578D8734FE54D6C0719/../../cores/adafruit_nrf52_feather52832_834d5f6a6bc090e19e7c4385762c2a0a/core.a(tasks.c.o)
 .text.vTaskRemoveFromUnorderedEventList
                0x0000000000000000       0x58 /home/sean/.cache/arduino/sketches/828FCB417685B578D8734FE54D6C0719/../../cores/adafruit_nrf52_feather52832_834d5f6a6bc090e19e7c4385762c2a0a/core.a(tasks.c.o)
 .text.vTaskSetTimeOutState
                0x0000000000000000       0x24 /home/sean/.cache/arduino/sketches/828FCB417685B578D8734FE54D6C0719/../../cores/adafruit_nrf52_feather52832_834d5f6a6bc090e19e7c4385762c2a0a/core.a(tasks.c.o)
 .text.uxTaskGetTaskNumber
                0x0000000000000000        0x8 /home/sean/.cache/arduino/sketches/828FCB417685B578D8734FE54D6C0719/../../cores/adafruit_nrf52_feather52832_834d5f6a6bc090e19e7c4385762c2a0a/core.a(tasks.c.o)
 .text.vTaskSetTaskNumber
                0x0000000000000000        0x8 /home/sean/.cache/arduino/sketches/828FCB417685B578D8734FE54D6C0719/../../cores/adafruit_nrf52_feather52832_834d5f6a6bc090e19e7c4385762c2a0a/core.a(tasks.c.o)
 .text.vTaskGetInfo
                0x0000000000000000       0xec /home/sean/.cache/arduino/sketches/828FCB417685B578D8734FE54D6C0719/../../cores/adafruit_nrf52_feather52832_834d5f6a6bc090e19e7c4385762c2a0a/core.a(tasks.c.o)
 .text.uxTaskGetStackHighWaterMark
                0x0000000000000000       0x34 /home/sean/.cache/arduino/sketches/828FCB417685B578D8734FE54D6C0719/../../cores/adafruit_nrf52_feather52832_834d5f6a6bc090e19e7c4385762c2a0a/core.a(tasks.c.o)
 .text.xTaskGetCurrentTaskHandle
                0x0000000000000000        0xc /home/sean/.cache/arduino/sketches/828FCB417685B578D8734FE54D6C0719/../../cores/adafruit_nrf52_feather52832_834d5f6a6bc090e19e7c4385762c2a0a/core.a(tasks.c.o)
 .rodata.vTaskList.str1.4
                0x0000000000000000        0xf /home/sean/.cache/arduino/sketches/828FCB417685B578D8734FE54D6C0719/../../cores/adafruit_nrf52_feather52832_834d5f6a6bc090e19e7c4385762c2a0a/core.a(tasks.c.o)
 .text.vTaskList
                0x0000000000000000       0xe8 /home/sean/.cache/arduino/sketches/828FCB417685B578D8734FE54D6C0719/../../cores/adafruit_nrf52_feather52832_834d5f6a6bc090e19e7c4385762c2a0a/core.a(tasks.c.o)
 .text.uxTaskResetEventItemValue
                0x0000000000000000       0x18 /home/sean/.cache/arduino/sketches/828FCB417685B578D8734FE54D6C0719/../../cores/adafruit_nrf52_feather52832_834d5f6a6bc090e19e7c4385762c2a0a/core.a(tasks.c.o)
 .text.ulTaskNotifyTake
                0x0000000000000000       0xc0 /home/sean/.cache/arduino/sketches/828FCB417685B578D8734FE54D6C0719/../../cores/adafruit_nrf52_feather52832_834d5f6a6bc090e19e7c4385762c2a0a/core.a(tasks.c.o)
 .text.xTaskNotifyWait
                0x0000000000000000       0xec /home/sean/.cache/arduino/sketches/828FCB417685B578D8734FE54D6C0719/../../cores/adafruit_nrf52_feather52832_834d5f6a6bc090e19e7c4385762c2a0a/core.a(tasks.c.o)
 .text.xTaskGenericNotify
                0x0000000000000000       0xd8 /home/sean/.cache/arduino/sketches/828FCB417685B578D8734FE54D6C0719/../../cores/adafruit_nrf52_feather52832_834d5f6a6bc090e19e7c4385762c2a0a/core.a(tasks.c.o)
 .text.xTaskGenericNotifyFromISR
                0x0000000000000000       0xc8 /home/sean/.cache/arduino/sketches/828FCB417685B578D8734FE54D6C0719/../../cores/adafruit_nrf52_feather52832_834d5f6a6bc090e19e7c4385762c2a0a/core.a(tasks.c.o)
 .text.vTaskNotifyGiveFromISR
                0x0000000000000000       0xa4 /home/sean/.cache/arduino/sketches/828FCB417685B578D8734FE54D6C0719/../../cores/adafruit_nrf52_feather52832_834d5f6a6bc090e19e7c4385762c2a0a/core.a(tasks.c.o)
 .text.xTaskNotifyStateClear
                0x0000000000000000       0x34 /home/sean/.cache/arduino/sketches/828FCB417685B578D8734FE54D6C0719/../../cores/adafruit_nrf52_feather52832_834d5f6a6bc090e19e7c4385762c2a0a/core.a(tasks.c.o)
 .rodata.CSWTCH.225
                0x0000000000000000        0x5 /home/sean/.cache/arduino/sketches/828FCB417685B578D8734FE54D6C0719/../../cores/adafruit_nrf52_feather52832_834d5f6a6bc090e19e7c4385762c2a0a/core.a(tasks.c.o)
 .text          0x0000000000000000        0x0 /home/sean/.cache/arduino/sketches/828FCB417685B578D8734FE54D6C0719/../../cores/adafruit_nrf52_feather52832_834d5f6a6bc090e19e7c4385762c2a0a/core.a(timers.c.o)
 .data          0x0000000000000000        0x0 /home/sean/.cache/arduino/sketches/828FCB417685B578D8734FE54D6C0719/../../cores/adafruit_nrf52_feather52832_834d5f6a6bc090e19e7c4385762c2a0a/core.a(timers.c.o)
 .bss           0x0000000000000000        0x0 /home/sean/.cache/arduino/sketches/828FCB417685B578D8734FE54D6C0719/../../cores/adafruit_nrf52_feather52832_834d5f6a6bc090e19e7c4385762c2a0a/core.a(timers.c.o)
 .text.xTimerCreate
                0x0000000000000000       0xac /home/sean/.cache/arduino/sketches/828FCB417685B578D8734FE54D6C0719/../../cores/adafruit_nrf52_feather52832_834d5f6a6bc090e19e7c4385762c2a0a/core.a(timers.c.o)
 .text.xTimerCreateStatic
                0x0000000000000000       0xa8 /home/sean/.cache/arduino/sketches/828FCB417685B578D8734FE54D6C0719/../../cores/adafruit_nrf52_feather52832_834d5f6a6bc090e19e7c4385762c2a0a/core.a(timers.c.o)
 .text.xTimerGenericCommand
                0x0000000000000000       0x58 /home/sean/.cache/arduino/sketches/828FCB417685B578D8734FE54D6C0719/../../cores/adafruit_nrf52_feather52832_834d5f6a6bc090e19e7c4385762c2a0a/core.a(timers.c.o)
 .text.xTimerGetTimerDaemonTaskHandle
                0x0000000000000000        0xc /home/sean/.cache/arduino/sketches/828FCB417685B578D8734FE54D6C0719/../../cores/adafruit_nrf52_feather52832_834d5f6a6bc090e19e7c4385762c2a0a/core.a(timers.c.o)
 .text.xTimerGetPeriod
                0x0000000000000000        0x4 /home/sean/.cache/arduino/sketches/828FCB417685B578D8734FE54D6C0719/../../cores/adafruit_nrf52_feather52832_834d5f6a6bc090e19e7c4385762c2a0a/core.a(timers.c.o)
 .text.xTimerGetExpiryTime
                0x0000000000000000        0x4 /home/sean/.cache/arduino/sketches/828FCB417685B578D8734FE54D6C0719/../../cores/adafruit_nrf52_feather52832_834d5f6a6bc090e19e7c4385762c2a0a/core.a(timers.c.o)
 .text.pcTimerGetName
                0x0000000000000000        0x4 /home/sean/.cache/arduino/sketches/828FCB417685B578D8734FE54D6C0719/../../cores/adafruit_nrf52_feather52832_834d5f6a6bc090e19e7c4385762c2a0a/core.a(timers.c.o)
 .text.xTimerIsTimerActive
                0x0000000000000000       0x20 /home/sean/.cache/arduino/sketches/828FCB417685B578D8734FE54D6C0719/../../cores/adafruit_nrf52_feather52832_834d5f6a6bc090e19e7c4385762c2a0a/core.a(timers.c.o)
 .text.pvTimerGetTimerID
                0x0000000000000000       0x18 /home/sean/.cache/arduino/sketches/828FCB417685B578D8734FE54D6C0719/../../cores/adafruit_nrf52_feather52832_834d5f6a6bc090e19e7c4385762c2a0a/core.a(timers.c.o)
 .text.vTimerSetTimerID
                0x0000000000000000       0x14 /home/sean/.cache/arduino/sketches/828FCB417685B578D8734FE54D6C0719/../../cores/adafruit_nrf52_feather52832_834d5f6a6bc090e19e7c4385762c2a0a/core.a(timers.c.o)
 .text.xTimerPendFunctionCallFromISR
                0x0000000000000000       0x2c /home/sean/.cache/arduino/sketches/828FCB417685B578D8734FE54D6C0719/../../cores/adafruit_nrf52_feather52832_834d5f6a6bc090e19e7c4385762c2a0a/core.a(timers.c.o)
 .text.xTimerPendFunctionCall
                0x0000000000000000       0x2c /home/sean/.cache/arduino/sketches/828FCB417685B578D8734FE54D6C0719/../../cores/adafruit_nrf52_feather52832_834d5f6a6bc090e19e7c4385762c2a0a/core.a(timers.c.o)
 .text.uxTimerGetTimerNumber
                0x0000000000000000        0x4 /home/sean/.cache/arduino/sketches/828FCB417685B578D8734FE54D6C0719/../../cores/adafruit_nrf52_feather52832_834d5f6a6bc090e19e7c4385762c2a0a/core.a(timers.c.o)
 .text.vTimerSetTimerNumber
                0x0000000000000000        0x4 /home/sean/.cache/arduino/sketches/828FCB417685B578D8734FE54D6C0719/../../cores/adafruit_nrf52_feather52832_834d5f6a6bc090e19e7c4385762c2a0a/core.a(timers.c.o)
 .text          0x0000000000000000        0x0 /home/sean/.cache/arduino/sketches/828FCB417685B578D8734FE54D6C0719/../../cores/adafruit_nrf52_feather52832_834d5f6a6bc090e19e7c4385762c2a0a/core.a(port_cmsis.c.o)
 .data          0x0000000000000000        0x0 /home/sean/.cache/arduino/sketches/828FCB417685B578D8734FE54D6C0719/../../cores/adafruit_nrf52_feather52832_834d5f6a6bc090e19e7c4385762c2a0a/core.a(port_cmsis.c.o)
 .bss           0x0000000000000000        0x0 /home/sean/.cache/arduino/sketches/828FCB417685B578D8734FE54D6C0719/../../cores/adafruit_nrf52_feather52832_834d5f6a6bc090e19e7c4385762c2a0a/core.a(port_cmsis.c.o)
 .text.vPortEndScheduler
                0x0000000000000000        0x4 /home/sean/.cache/arduino/sketches/828FCB417685B578D8734FE54D6C0719/../../cores/adafruit_nrf52_feather52832_834d5f6a6bc090e19e7c4385762c2a0a/core.a(port_cmsis.c.o)
 .text          0x0000000000000000        0x0 /home/sean/.cache/arduino/sketches/828FCB417685B578D8734FE54D6C0719/../../cores/adafruit_nrf52_feather52832_834d5f6a6bc090e19e7c4385762c2a0a/core.a(port_cmsis_systick.c.o)
 .data          0x0000000000000000        0x0 /home/sean/.cache/arduino/sketches/828FCB417685B578D8734FE54D6C0719/../../cores/adafruit_nrf52_feather52832_834d5f6a6bc090e19e7c4385762c2a0a/core.a(port_cmsis_systick.c.o)
 .bss           0x0000000000000000        0x0 /home/sean/.cache/arduino/sketches/828FCB417685B578D8734FE54D6C0719/../../cores/adafruit_nrf52_feather52832_834d5f6a6bc090e19e7c4385762c2a0a/core.a(port_cmsis_systick.c.o)
 .text          0x0000000000000000        0x0 /home/sean/.cache/arduino/sketches/828FCB417685B578D8734FE54D6C0719/../../cores/adafruit_nrf52_feather52832_834d5f6a6bc090e19e7c4385762c2a0a/core.a(port.c.o)
 .data          0x0000000000000000        0x0 /home/sean/.cache/arduino/sketches/828FCB417685B578D8734FE54D6C0719/../../cores/adafruit_nrf52_feather52832_834d5f6a6bc090e19e7c4385762c2a0a/core.a(port.c.o)
 .bss           0x0000000000000000        0x0 /home/sean/.cache/arduino/sketches/828FCB417685B578D8734FE54D6C0719/../../cores/adafruit_nrf52_feather52832_834d5f6a6bc090e19e7c4385762c2a0a/core.a(port.c.o)
 .text          0x0000000000000000        0x0 /home/sean/.cache/arduino/sketches/828FCB417685B578D8734FE54D6C0719/../../cores/adafruit_nrf52_feather52832_834d5f6a6bc090e19e7c4385762c2a0a/core.a(hooks.c.o)
 .data          0x0000000000000000        0x0 /home/sean/.cache/arduino/sketches/828FCB417685B578D8734FE54D6C0719/../../cores/adafruit_nrf52_feather52832_834d5f6a6bc090e19e7c4385762c2a0a/core.a(hooks.c.o)
 .bss           0x0000000000000000        0x0 /home/sean/.cache/arduino/sketches/828FCB417685B578D8734FE54D6C0719/../../cores/adafruit_nrf52_feather52832_834d5f6a6bc090e19e7c4385762c2a0a/core.a(hooks.c.o)
 .text.__false  0x0000000000000000        0x4 /home/sean/.cache/arduino/sketches/828FCB417685B578D8734FE54D6C0719/../../cores/adafruit_nrf52_feather52832_834d5f6a6bc090e19e7c4385762c2a0a/core.a(hooks.c.o)
 .text.__halt   0x0000000000000000        0x4 /home/sean/.cache/arduino/sketches/828FCB417685B578D8734FE54D6C0719/../../cores/adafruit_nrf52_feather52832_834d5f6a6bc090e19e7c4385762c2a0a/core.a(hooks.c.o)
 .text          0x0000000000000000        0x0 /home/sean/.cache/arduino/sketches/828FCB417685B578D8734FE54D6C0719/../../cores/adafruit_nrf52_feather52832_834d5f6a6bc090e19e7c4385762c2a0a/core.a(RingBuffer.cpp.o)
 .data          0x0000000000000000        0x0 /home/sean/.cache/arduino/sketches/828FCB417685B578D8734FE54D6C0719/../../cores/adafruit_nrf52_feather52832_834d5f6a6bc090e19e7c4385762c2a0a/core.a(RingBuffer.cpp.o)
 .bss           0x0000000000000000        0x0 /home/sean/.cache/arduino/sketches/828FCB417685B578D8734FE54D6C0719/../../cores/adafruit_nrf52_feather52832_834d5f6a6bc090e19e7c4385762c2a0a/core.a(RingBuffer.cpp.o)
 .text._ZN10RingBuffer17availableForStoreEv
                0x0000000000000000       0x18 /home/sean/.cache/arduino/sketches/828FCB417685B578D8734FE54D6C0719/../../cores/adafruit_nrf52_feather52832_834d5f6a6bc090e19e7c4385762c2a0a/core.a(RingBuffer.cpp.o)
 .text._ZN10RingBuffer9nextIndexEi
                0x0000000000000000        0x8 /home/sean/.cache/arduino/sketches/828FCB417685B578D8734FE54D6C0719/../../cores/adafruit_nrf52_feather52832_834d5f6a6bc090e19e7c4385762c2a0a/core.a(RingBuffer.cpp.o)
 .text._ZN10RingBuffer6isFullEv
                0x0000000000000000       0x14 /home/sean/.cache/arduino/sketches/828FCB417685B578D8734FE54D6C0719/../../cores/adafruit_nrf52_feather52832_834d5f6a6bc090e19e7c4385762c2a0a/core.a(RingBuffer.cpp.o)
 .text          0x0000000000000000        0x0 /home/sean/.cache/arduino/sketches/828FCB417685B578D8734FE54D6C0719/../../cores/adafruit_nrf52_feather52832_834d5f6a6bc090e19e7c4385762c2a0a/core.a(list.c.o)
 .data          0x0000000000000000        0x0 /home/sean/.cache/arduino/sketches/828FCB417685B578D8734FE54D6C0719/../../cores/adafruit_nrf52_feather52832_834d5f6a6bc090e19e7c4385762c2a0a/core.a(list.c.o)
 .bss           0x0000000000000000        0x0 /home/sean/.cache/arduino/sketches/828FCB417685B578D8734FE54D6C0719/../../cores/adafruit_nrf52_feather52832_834d5f6a6bc090e19e7c4385762c2a0a/core.a(list.c.o)
 .text          0x0000000000000000        0x0 /home/sean/.arduino15/packages/adafruit/tools/arm-none-eabi-gcc/9-2019q4/bin/../lib/gcc/arm-none-eabi/9.2.1/../../../../arm-none-eabi/lib/thumb/v7e-m+fp/hard/libc.a(lib_a-calloc.o)
 .data          0x0000000000000000        0x0 /home/sean/.arduino15/packages/adafruit/tools/arm-none-eabi-gcc/9-2019q4/bin/../lib/gcc/arm-none-eabi/9.2.1/../../../../arm-none-eabi/lib/thumb/v7e-m+fp/hard/libc.a(lib_a-calloc.o)
 .bss           0x0000000000000000        0x0 /home/sean/.arduino15/packages/adafruit/tools/arm-none-eabi-gcc/9-2019q4/bin/../lib/gcc/arm-none-eabi/9.2.1/../../../../arm-none-eabi/lib/thumb/v7e-m+fp/hard/libc.a(lib_a-calloc.o)
 .text.calloc   0x0000000000000000       0x10 /home/sean/.arduino15/packages/adafruit/tools/arm-none-eabi-gcc/9-2019q4/bin/../lib/gcc/arm-none-eabi/9.2.1/../../../../arm-none-eabi/lib/thumb/v7e-m+fp/hard/libc.a(lib_a-calloc.o)
 .debug_frame   0x0000000000000000       0x20 /home/sean/.arduino15/packages/adafruit/tools/arm-none-eabi-gcc/9-2019q4/bin/../lib/gcc/arm-none-eabi/9.2.1/../../../../arm-none-eabi/lib/thumb/v7e-m+fp/hard/libc.a(lib_a-calloc.o)
 .ARM.attributes
                0x0000000000000000       0x34 /home/sean/.arduino15/packages/adafruit/tools/arm-none-eabi-gcc/9-2019q4/bin/../lib/gcc/arm-none-eabi/9.2.1/../../../../arm-none-eabi/lib/thumb/v7e-m+fp/hard/libc.a(lib_a-calloc.o)
 .text          0x0000000000000000        0x0 /home/sean/.arduino15/packages/adafruit/tools/arm-none-eabi-gcc/9-2019q4/bin/../lib/gcc/arm-none-eabi/9.2.1/../../../../arm-none-eabi/lib/thumb/v7e-m+fp/hard/libc.a(lib_a-callocr.o)
 .data          0x0000000000000000        0x0 /home/sean/.arduino15/packages/adafruit/tools/arm-none-eabi-gcc/9-2019q4/bin/../lib/gcc/arm-none-eabi/9.2.1/../../../../arm-none-eabi/lib/thumb/v7e-m+fp/hard/libc.a(lib_a-callocr.o)
 .bss           0x0000000000000000        0x0 /home/sean/.arduino15/packages/adafruit/tools/arm-none-eabi-gcc/9-2019q4/bin/../lib/gcc/arm-none-eabi/9.2.1/../../../../arm-none-eabi/lib/thumb/v7e-m+fp/hard/libc.a(lib_a-callocr.o)
 .text._calloc_r
                0x0000000000000000       0x60 /home/sean/.arduino15/packages/adafruit/tools/arm-none-eabi-gcc/9-2019q4/bin/../lib/gcc/arm-none-eabi/9.2.1/../../../../arm-none-eabi/lib/thumb/v7e-m+fp/hard/libc.a(lib_a-callocr.o)
 .debug_frame   0x0000000000000000       0x28 /home/sean/.arduino15/packages/adafruit/tools/arm-none-eabi-gcc/9-2019q4/bin/../lib/gcc/arm-none-eabi/9.2.1/../../../../arm-none-eabi/lib/thumb/v7e-m+fp/hard/libc.a(lib_a-callocr.o)
 .ARM.attributes
                0x0000000000000000       0x34 /home/sean/.arduino15/packages/adafruit/tools/arm-none-eabi-gcc/9-2019q4/bin/../lib/gcc/arm-none-eabi/9.2.1/../../../../arm-none-eabi/lib/thumb/v7e-m+fp/hard/libc.a(lib_a-callocr.o)
 .text          0x0000000000000000        0x0 /home/sean/.arduino15/packages/adafruit/tools/arm-none-eabi-gcc/9-2019q4/bin/../lib/gcc/arm-none-eabi/9.2.1/../../../../arm-none-eabi/lib/thumb/v7e-m+fp/hard/libc.a(lib_a-exit.o)
 .data          0x0000000000000000        0x0 /home/sean/.arduino15/packages/adafruit/tools/arm-none-eabi-gcc/9-2019q4/bin/../lib/gcc/arm-none-eabi/9.2.1/../../../../arm-none-eabi/lib/thumb/v7e-m+fp/hard/libc.a(lib_a-exit.o)
 .bss           0x0000000000000000        0x0 /home/sean/.arduino15/packages/adafruit/tools/arm-none-eabi-gcc/9-2019q4/bin/../lib/gcc/arm-none-eabi/9.2.1/../../../../arm-none-eabi/lib/thumb/v7e-m+fp/hard/libc.a(lib_a-exit.o)
 .text          0x0000000000000000        0x0 /home/sean/.arduino15/packages/adafruit/tools/arm-none-eabi-gcc/9-2019q4/bin/../lib/gcc/arm-none-eabi/9.2.1/../../../../arm-none-eabi/lib/thumb/v7e-m+fp/hard/libc.a(lib_a-impure.o)
 .data          0x0000000000000000        0x0 /home/sean/.arduino15/packages/adafruit/tools/arm-none-eabi-gcc/9-2019q4/bin/../lib/gcc/arm-none-eabi/9.2.1/../../../../arm-none-eabi/lib/thumb/v7e-m+fp/hard/libc.a(lib_a-impure.o)
 .bss           0x0000000000000000        0x0 /home/sean/.arduino15/packages/adafruit/tools/arm-none-eabi-gcc/9-2019q4/bin/../lib/gcc/arm-none-eabi/9.2.1/../../../../arm-none-eabi/lib/thumb/v7e-m+fp/hard/libc.a(lib_a-impure.o)
 .text          0x0000000000000000        0x0 /home/sean/.arduino15/packages/adafruit/tools/arm-none-eabi-gcc/9-2019q4/bin/../lib/gcc/arm-none-eabi/9.2.1/../../../../arm-none-eabi/lib/thumb/v7e-m+fp/hard/libc.a(lib_a-init.o)
 .data          0x0000000000000000        0x0 /home/sean/.arduino15/packages/adafruit/tools/arm-none-eabi-gcc/9-2019q4/bin/../lib/gcc/arm-none-eabi/9.2.1/../../../../arm-none-eabi/lib/thumb/v7e-m+fp/hard/libc.a(lib_a-init.o)
 .bss           0x0000000000000000        0x0 /home/sean/.arduino15/packages/adafruit/tools/arm-none-eabi-gcc/9-2019q4/bin/../lib/gcc/arm-none-eabi/9.2.1/../../../../arm-none-eabi/lib/thumb/v7e-m+fp/hard/libc.a(lib_a-init.o)
 .text          0x0000000000000000        0x0 /home/sean/.arduino15/packages/adafruit/tools/arm-none-eabi-gcc/9-2019q4/bin/../lib/gcc/arm-none-eabi/9.2.1/../../../../arm-none-eabi/lib/thumb/v7e-m+fp/hard/libc.a(lib_a-malloc.o)
 .data          0x0000000000000000        0x0 /home/sean/.arduino15/packages/adafruit/tools/arm-none-eabi-gcc/9-2019q4/bin/../lib/gcc/arm-none-eabi/9.2.1/../../../../arm-none-eabi/lib/thumb/v7e-m+fp/hard/libc.a(lib_a-malloc.o)
 .bss           0x0000000000000000        0x0 /home/sean/.arduino15/packages/adafruit/tools/arm-none-eabi-gcc/9-2019q4/bin/../lib/gcc/arm-none-eabi/9.2.1/../../../../arm-none-eabi/lib/thumb/v7e-m+fp/hard/libc.a(lib_a-malloc.o)
 .text          0x0000000000000000        0x0 /home/sean/.arduino15/packages/adafruit/tools/arm-none-eabi-gcc/9-2019q4/bin/../lib/gcc/arm-none-eabi/9.2.1/../../../../arm-none-eabi/lib/thumb/v7e-m+fp/hard/libc.a(lib_a-mallocr.o)
 .data          0x0000000000000000        0x0 /home/sean/.arduino15/packages/adafruit/tools/arm-none-eabi-gcc/9-2019q4/bin/../lib/gcc/arm-none-eabi/9.2.1/../../../../arm-none-eabi/lib/thumb/v7e-m+fp/hard/libc.a(lib_a-mallocr.o)
 .bss           0x0000000000000000        0x0 /home/sean/.arduino15/packages/adafruit/tools/arm-none-eabi-gcc/9-2019q4/bin/../lib/gcc/arm-none-eabi/9.2.1/../../../../arm-none-eabi/lib/thumb/v7e-m+fp/hard/libc.a(lib_a-mallocr.o)
 .data          0x0000000000000000        0x0 /home/sean/.arduino15/packages/adafruit/tools/arm-none-eabi-gcc/9-2019q4/bin/../lib/gcc/arm-none-eabi/9.2.1/../../../../arm-none-eabi/lib/thumb/v7e-m+fp/hard/libc.a(lib_a-memcpy.o)
 .bss           0x0000000000000000        0x0 /home/sean/.arduino15/packages/adafruit/tools/arm-none-eabi-gcc/9-2019q4/bin/../lib/gcc/arm-none-eabi/9.2.1/../../../../arm-none-eabi/lib/thumb/v7e-m+fp/hard/libc.a(lib_a-memcpy.o)
 .text          0x0000000000000000        0x0 /home/sean/.arduino15/packages/adafruit/tools/arm-none-eabi-gcc/9-2019q4/bin/../lib/gcc/arm-none-eabi/9.2.1/../../../../arm-none-eabi/lib/thumb/v7e-m+fp/hard/libc.a(lib_a-memset.o)
 .data          0x0000000000000000        0x0 /home/sean/.arduino15/packages/adafruit/tools/arm-none-eabi-gcc/9-2019q4/bin/../lib/gcc/arm-none-eabi/9.2.1/../../../../arm-none-eabi/lib/thumb/v7e-m+fp/hard/libc.a(lib_a-memset.o)
 .bss           0x0000000000000000        0x0 /home/sean/.arduino15/packages/adafruit/tools/arm-none-eabi-gcc/9-2019q4/bin/../lib/gcc/arm-none-eabi/9.2.1/../../../../arm-none-eabi/lib/thumb/v7e-m+fp/hard/libc.a(lib_a-memset.o)
 .text          0x0000000000000000        0x0 /home/sean/.arduino15/packages/adafruit/tools/arm-none-eabi-gcc/9-2019q4/bin/../lib/gcc/arm-none-eabi/9.2.1/../../../../arm-none-eabi/lib/thumb/v7e-m+fp/hard/libc.a(lib_a-mlock.o)
 .data          0x0000000000000000        0x0 /home/sean/.arduino15/packages/adafruit/tools/arm-none-eabi-gcc/9-2019q4/bin/../lib/gcc/arm-none-eabi/9.2.1/../../../../arm-none-eabi/lib/thumb/v7e-m+fp/hard/libc.a(lib_a-mlock.o)
 .bss           0x0000000000000000        0x0 /home/sean/.arduino15/packages/adafruit/tools/arm-none-eabi-gcc/9-2019q4/bin/../lib/gcc/arm-none-eabi/9.2.1/../../../../arm-none-eabi/lib/thumb/v7e-m+fp/hard/libc.a(lib_a-mlock.o)
 .text          0x0000000000000000        0x0 /home/sean/.arduino15/packages/adafruit/tools/arm-none-eabi-gcc/9-2019q4/bin/../lib/gcc/arm-none-eabi/9.2.1/../../../../arm-none-eabi/lib/thumb/v7e-m+fp/hard/libc.a(lib_a-realloc.o)
 .data          0x0000000000000000        0x0 /home/sean/.arduino15/packages/adafruit/tools/arm-none-eabi-gcc/9-2019q4/bin/../lib/gcc/arm-none-eabi/9.2.1/../../../../arm-none-eabi/lib/thumb/v7e-m+fp/hard/libc.a(lib_a-realloc.o)
 .bss           0x0000000000000000        0x0 /home/sean/.arduino15/packages/adafruit/tools/arm-none-eabi-gcc/9-2019q4/bin/../lib/gcc/arm-none-eabi/9.2.1/../../../../arm-none-eabi/lib/thumb/v7e-m+fp/hard/libc.a(lib_a-realloc.o)
 .text.realloc  0x0000000000000000       0x10 /home/sean/.arduino15/packages/adafruit/tools/arm-none-eabi-gcc/9-2019q4/bin/../lib/gcc/arm-none-eabi/9.2.1/../../../../arm-none-eabi/lib/thumb/v7e-m+fp/hard/libc.a(lib_a-realloc.o)
 .debug_frame   0x0000000000000000       0x20 /home/sean/.arduino15/packages/adafruit/tools/arm-none-eabi-gcc/9-2019q4/bin/../lib/gcc/arm-none-eabi/9.2.1/../../../../arm-none-eabi/lib/thumb/v7e-m+fp/hard/libc.a(lib_a-realloc.o)
 .ARM.attributes
                0x0000000000000000       0x34 /home/sean/.arduino15/packages/adafruit/tools/arm-none-eabi-gcc/9-2019q4/bin/../lib/gcc/arm-none-eabi/9.2.1/../../../../arm-none-eabi/lib/thumb/v7e-m+fp/hard/libc.a(lib_a-realloc.o)
 .text          0x0000000000000000        0x0 /home/sean/.arduino15/packages/adafruit/tools/arm-none-eabi-gcc/9-2019q4/bin/../lib/gcc/arm-none-eabi/9.2.1/../../../../arm-none-eabi/lib/thumb/v7e-m+fp/hard/libc.a(lib_a-reallocr.o)
 .data          0x0000000000000000        0x0 /home/sean/.arduino15/packages/adafruit/tools/arm-none-eabi-gcc/9-2019q4/bin/../lib/gcc/arm-none-eabi/9.2.1/../../../../arm-none-eabi/lib/thumb/v7e-m+fp/hard/libc.a(lib_a-reallocr.o)
 .bss           0x0000000000000000        0x0 /home/sean/.arduino15/packages/adafruit/tools/arm-none-eabi-gcc/9-2019q4/bin/../lib/gcc/arm-none-eabi/9.2.1/../../../../arm-none-eabi/lib/thumb/v7e-m+fp/hard/libc.a(lib_a-reallocr.o)
 .text._realloc_r
                0x0000000000000000      0x3e0 /home/sean/.arduino15/packages/adafruit/tools/arm-none-eabi-gcc/9-2019q4/bin/../lib/gcc/arm-none-eabi/9.2.1/../../../../arm-none-eabi/lib/thumb/v7e-m+fp/hard/libc.a(lib_a-reallocr.o)
 .debug_frame   0x0000000000000000       0x48 /home/sean/.arduino15/packages/adafruit/tools/arm-none-eabi-gcc/9-2019q4/bin/../lib/gcc/arm-none-eabi/9.2.1/../../../../arm-none-eabi/lib/thumb/v7e-m+fp/hard/libc.a(lib_a-reallocr.o)
 .ARM.attributes
                0x0000000000000000       0x34 /home/sean/.arduino15/packages/adafruit/tools/arm-none-eabi-gcc/9-2019q4/bin/../lib/gcc/arm-none-eabi/9.2.1/../../../../arm-none-eabi/lib/thumb/v7e-m+fp/hard/libc.a(lib_a-reallocr.o)
 .text          0x0000000000000000        0x0 /home/sean/.arduino15/packages/adafruit/tools/arm-none-eabi-gcc/9-2019q4/bin/../lib/gcc/arm-none-eabi/9.2.1/../../../../arm-none-eabi/lib/thumb/v7e-m+fp/hard/libc.a(lib_a-sbrkr.o)
 .data          0x0000000000000000        0x0 /home/sean/.arduino15/packages/adafruit/tools/arm-none-eabi-gcc/9-2019q4/bin/../lib/gcc/arm-none-eabi/9.2.1/../../../../arm-none-eabi/lib/thumb/v7e-m+fp/hard/libc.a(lib_a-sbrkr.o)
 .bss           0x0000000000000000        0x0 /home/sean/.arduino15/packages/adafruit/tools/arm-none-eabi-gcc/9-2019q4/bin/../lib/gcc/arm-none-eabi/9.2.1/../../../../arm-none-eabi/lib/thumb/v7e-m+fp/hard/libc.a(lib_a-sbrkr.o)
 .text          0x0000000000000000        0x0 /home/sean/.arduino15/packages/adafruit/tools/arm-none-eabi-gcc/9-2019q4/bin/../lib/gcc/arm-none-eabi/9.2.1/../../../../arm-none-eabi/lib/thumb/v7e-m+fp/hard/libc.a(lib_a-sprintf.o)
 .data          0x0000000000000000        0x0 /home/sean/.arduino15/packages/adafruit/tools/arm-none-eabi-gcc/9-2019q4/bin/../lib/gcc/arm-none-eabi/9.2.1/../../../../arm-none-eabi/lib/thumb/v7e-m+fp/hard/libc.a(lib_a-sprintf.o)
 .bss           0x0000000000000000        0x0 /home/sean/.arduino15/packages/adafruit/tools/arm-none-eabi-gcc/9-2019q4/bin/../lib/gcc/arm-none-eabi/9.2.1/../../../../arm-none-eabi/lib/thumb/v7e-m+fp/hard/libc.a(lib_a-sprintf.o)
 .text._sprintf_r
                0x0000000000000000       0x38 /home/sean/.arduino15/packages/adafruit/tools/arm-none-eabi-gcc/9-2019q4/bin/../lib/gcc/arm-none-eabi/9.2.1/../../../../arm-none-eabi/lib/thumb/v7e-m+fp/hard/libc.a(lib_a-sprintf.o)
 .text.sprintf  0x0000000000000000       0x44 /home/sean/.arduino15/packages/adafruit/tools/arm-none-eabi-gcc/9-2019q4/bin/../lib/gcc/arm-none-eabi/9.2.1/../../../../arm-none-eabi/lib/thumb/v7e-m+fp/hard/libc.a(lib_a-sprintf.o)
 .debug_frame   0x0000000000000000       0x7c /home/sean/.arduino15/packages/adafruit/tools/arm-none-eabi-gcc/9-2019q4/bin/../lib/gcc/arm-none-eabi/9.2.1/../../../../arm-none-eabi/lib/thumb/v7e-m+fp/hard/libc.a(lib_a-sprintf.o)
 .ARM.attributes
                0x0000000000000000       0x34 /home/sean/.arduino15/packages/adafruit/tools/arm-none-eabi-gcc/9-2019q4/bin/../lib/gcc/arm-none-eabi/9.2.1/../../../../arm-none-eabi/lib/thumb/v7e-m+fp/hard/libc.a(lib_a-sprintf.o)
 .text          0x0000000000000000        0x0 /home/sean/.arduino15/packages/adafruit/tools/arm-none-eabi-gcc/9-2019q4/bin/../lib/gcc/arm-none-eabi/9.2.1/../../../../arm-none-eabi/lib/thumb/v7e-m+fp/hard/libc.a(lib_a-stpcpy.o)
 .data          0x0000000000000000        0x0 /home/sean/.arduino15/packages/adafruit/tools/arm-none-eabi-gcc/9-2019q4/bin/../lib/gcc/arm-none-eabi/9.2.1/../../../../arm-none-eabi/lib/thumb/v7e-m+fp/hard/libc.a(lib_a-stpcpy.o)
 .bss           0x0000000000000000        0x0 /home/sean/.arduino15/packages/adafruit/tools/arm-none-eabi-gcc/9-2019q4/bin/../lib/gcc/arm-none-eabi/9.2.1/../../../../arm-none-eabi/lib/thumb/v7e-m+fp/hard/libc.a(lib_a-stpcpy.o)
 .text.stpcpy   0x0000000000000000       0x5c /home/sean/.arduino15/packages/adafruit/tools/arm-none-eabi-gcc/9-2019q4/bin/../lib/gcc/arm-none-eabi/9.2.1/../../../../arm-none-eabi/lib/thumb/v7e-m+fp/hard/libc.a(lib_a-stpcpy.o)
 .debug_frame   0x0000000000000000       0x2c /home/sean/.arduino15/packages/adafruit/tools/arm-none-eabi-gcc/9-2019q4/bin/../lib/gcc/arm-none-eabi/9.2.1/../../../../arm-none-eabi/lib/thumb/v7e-m+fp/hard/libc.a(lib_a-stpcpy.o)
 .ARM.attributes
                0x0000000000000000       0x34 /home/sean/.arduino15/packages/adafruit/tools/arm-none-eabi-gcc/9-2019q4/bin/../lib/gcc/arm-none-eabi/9.2.1/../../../../arm-none-eabi/lib/thumb/v7e-m+fp/hard/libc.a(lib_a-stpcpy.o)
 .text          0x0000000000000000       0xdc /home/sean/.arduino15/packages/adafruit/tools/arm-none-eabi-gcc/9-2019q4/bin/../lib/gcc/arm-none-eabi/9.2.1/../../../../arm-none-eabi/lib/thumb/v7e-m+fp/hard/libc.a(lib_a-strlen.o)
 .data          0x0000000000000000        0x0 /home/sean/.arduino15/packages/adafruit/tools/arm-none-eabi-gcc/9-2019q4/bin/../lib/gcc/arm-none-eabi/9.2.1/../../../../arm-none-eabi/lib/thumb/v7e-m+fp/hard/libc.a(lib_a-strlen.o)
 .bss           0x0000000000000000        0x0 /home/sean/.arduino15/packages/adafruit/tools/arm-none-eabi-gcc/9-2019q4/bin/../lib/gcc/arm-none-eabi/9.2.1/../../../../arm-none-eabi/lib/thumb/v7e-m+fp/hard/libc.a(lib_a-strlen.o)
 .ARM.attributes
                0x0000000000000000       0x1c /home/sean/.arduino15/packages/adafruit/tools/arm-none-eabi-gcc/9-2019q4/bin/../lib/gcc/arm-none-eabi/9.2.1/../../../../arm-none-eabi/lib/thumb/v7e-m+fp/hard/libc.a(lib_a-strlen.o)
 .text          0x0000000000000000        0x0 /home/sean/.arduino15/packages/adafruit/tools/arm-none-eabi-gcc/9-2019q4/bin/../lib/gcc/arm-none-eabi/9.2.1/../../../../arm-none-eabi/lib/thumb/v7e-m+fp/hard/libc.a(lib_a-svfprintf.o)
 .data          0x0000000000000000        0x0 /home/sean/.arduino15/packages/adafruit/tools/arm-none-eabi-gcc/9-2019q4/bin/../lib/gcc/arm-none-eabi/9.2.1/../../../../arm-none-eabi/lib/thumb/v7e-m+fp/hard/libc.a(lib_a-svfprintf.o)
 .bss           0x0000000000000000        0x0 /home/sean/.arduino15/packages/adafruit/tools/arm-none-eabi-gcc/9-2019q4/bin/../lib/gcc/arm-none-eabi/9.2.1/../../../../arm-none-eabi/lib/thumb/v7e-m+fp/hard/libc.a(lib_a-svfprintf.o)
 .rodata._svfprintf_r.str1.4
                0x0000000000000000       0x42 /home/sean/.arduino15/packages/adafruit/tools/arm-none-eabi-gcc/9-2019q4/bin/../lib/gcc/arm-none-eabi/9.2.1/../../../../arm-none-eabi/lib/thumb/v7e-m+fp/hard/libc.a(lib_a-svfprintf.o)
 .text._svfprintf_r
                0x0000000000000000     0x1b38 /home/sean/.arduino15/packages/adafruit/tools/arm-none-eabi-gcc/9-2019q4/bin/../lib/gcc/arm-none-eabi/9.2.1/../../../../arm-none-eabi/lib/thumb/v7e-m+fp/hard/libc.a(lib_a-svfprintf.o)
 .rodata.blanks.8708
                0x0000000000000000       0x10 /home/sean/.arduino15/packages/adafruit/tools/arm-none-eabi-gcc/9-2019q4/bin/../lib/gcc/arm-none-eabi/9.2.1/../../../../arm-none-eabi/lib/thumb/v7e-m+fp/hard/libc.a(lib_a-svfprintf.o)
 .rodata.zeroes.8709
                0x0000000000000000       0x10 /home/sean/.arduino15/packages/adafruit/tools/arm-none-eabi-gcc/9-2019q4/bin/../lib/gcc/arm-none-eabi/9.2.1/../../../../arm-none-eabi/lib/thumb/v7e-m+fp/hard/libc.a(lib_a-svfprintf.o)
 .debug_frame   0x0000000000000000       0x68 /home/sean/.arduino15/packages/adafruit/tools/arm-none-eabi-gcc/9-2019q4/bin/../lib/gcc/arm-none-eabi/9.2.1/../../../../arm-none-eabi/lib/thumb/v7e-m+fp/hard/libc.a(lib_a-svfprintf.o)
 .ARM.attributes
                0x0000000000000000       0x34 /home/sean/.arduino15/packages/adafruit/tools/arm-none-eabi-gcc/9-2019q4/bin/../lib/gcc/arm-none-eabi/9.2.1/../../../../arm-none-eabi/lib/thumb/v7e-m+fp/hard/libc.a(lib_a-svfprintf.o)
 .text          0x0000000000000000        0x0 /home/sean/.arduino15/packages/adafruit/tools/arm-none-eabi-gcc/9-2019q4/bin/../lib/gcc/arm-none-eabi/9.2.1/../../../../arm-none-eabi/lib/thumb/v7e-m+fp/hard/libc.a(lib_a-__call_atexit.o)
 .data          0x0000000000000000        0x0 /home/sean/.arduino15/packages/adafruit/tools/arm-none-eabi-gcc/9-2019q4/bin/../lib/gcc/arm-none-eabi/9.2.1/../../../../arm-none-eabi/lib/thumb/v7e-m+fp/hard/libc.a(lib_a-__call_atexit.o)
 .bss           0x0000000000000000        0x0 /home/sean/.arduino15/packages/adafruit/tools/arm-none-eabi-gcc/9-2019q4/bin/../lib/gcc/arm-none-eabi/9.2.1/../../../../arm-none-eabi/lib/thumb/v7e-m+fp/hard/libc.a(lib_a-__call_atexit.o)
 .text          0x0000000000000000        0x0 /home/sean/.arduino15/packages/adafruit/tools/arm-none-eabi-gcc/9-2019q4/bin/../lib/gcc/arm-none-eabi/9.2.1/../../../../arm-none-eabi/lib/thumb/v7e-m+fp/hard/libc.a(lib_a-atexit.o)
 .data          0x0000000000000000        0x0 /home/sean/.arduino15/packages/adafruit/tools/arm-none-eabi-gcc/9-2019q4/bin/../lib/gcc/arm-none-eabi/9.2.1/../../../../arm-none-eabi/lib/thumb/v7e-m+fp/hard/libc.a(lib_a-atexit.o)
 .bss           0x0000000000000000        0x0 /home/sean/.arduino15/packages/adafruit/tools/arm-none-eabi-gcc/9-2019q4/bin/../lib/gcc/arm-none-eabi/9.2.1/../../../../arm-none-eabi/lib/thumb/v7e-m+fp/hard/libc.a(lib_a-atexit.o)
 .text          0x0000000000000000        0x0 /home/sean/.arduino15/packages/adafruit/tools/arm-none-eabi-gcc/9-2019q4/bin/../lib/gcc/arm-none-eabi/9.2.1/../../../../arm-none-eabi/lib/thumb/v7e-m+fp/hard/libc.a(lib_a-dtoa.o)
 .data          0x0000000000000000        0x0 /home/sean/.arduino15/packages/adafruit/tools/arm-none-eabi-gcc/9-2019q4/bin/../lib/gcc/arm-none-eabi/9.2.1/../../../../arm-none-eabi/lib/thumb/v7e-m+fp/hard/libc.a(lib_a-dtoa.o)
 .bss           0x0000000000000000        0x0 /home/sean/.arduino15/packages/adafruit/tools/arm-none-eabi-gcc/9-2019q4/bin/../lib/gcc/arm-none-eabi/9.2.1/../../../../arm-none-eabi/lib/thumb/v7e-m+fp/hard/libc.a(lib_a-dtoa.o)
 .text.quorem   0x0000000000000000      0x11c /home/sean/.arduino15/packages/adafruit/tools/arm-none-eabi-gcc/9-2019q4/bin/../lib/gcc/arm-none-eabi/9.2.1/../../../../arm-none-eabi/lib/thumb/v7e-m+fp/hard/libc.a(lib_a-dtoa.o)
 .rodata._dtoa_r.str1.4
                0x0000000000000000       0x12 /home/sean/.arduino15/packages/adafruit/tools/arm-none-eabi-gcc/9-2019q4/bin/../lib/gcc/arm-none-eabi/9.2.1/../../../../arm-none-eabi/lib/thumb/v7e-m+fp/hard/libc.a(lib_a-dtoa.o)
 .text._dtoa_r  0x0000000000000000      0xeec /home/sean/.arduino15/packages/adafruit/tools/arm-none-eabi-gcc/9-2019q4/bin/../lib/gcc/arm-none-eabi/9.2.1/../../../../arm-none-eabi/lib/thumb/v7e-m+fp/hard/libc.a(lib_a-dtoa.o)
 .debug_frame   0x0000000000000000       0xc4 /home/sean/.arduino15/packages/adafruit/tools/arm-none-eabi-gcc/9-2019q4/bin/../lib/gcc/arm-none-eabi/9.2.1/../../../../arm-none-eabi/lib/thumb/v7e-m+fp/hard/libc.a(lib_a-dtoa.o)
 .ARM.attributes
                0x0000000000000000       0x34 /home/sean/.arduino15/packages/adafruit/tools/arm-none-eabi-gcc/9-2019q4/bin/../lib/gcc/arm-none-eabi/9.2.1/../../../../arm-none-eabi/lib/thumb/v7e-m+fp/hard/libc.a(lib_a-dtoa.o)
 .text          0x0000000000000000        0x0 /home/sean/.arduino15/packages/adafruit/tools/arm-none-eabi-gcc/9-2019q4/bin/../lib/gcc/arm-none-eabi/9.2.1/../../../../arm-none-eabi/lib/thumb/v7e-m+fp/hard/libc.a(lib_a-fini.o)
 .data          0x0000000000000000        0x0 /home/sean/.arduino15/packages/adafruit/tools/arm-none-eabi-gcc/9-2019q4/bin/../lib/gcc/arm-none-eabi/9.2.1/../../../../arm-none-eabi/lib/thumb/v7e-m+fp/hard/libc.a(lib_a-fini.o)
 .bss           0x0000000000000000        0x0 /home/sean/.arduino15/packages/adafruit/tools/arm-none-eabi-gcc/9-2019q4/bin/../lib/gcc/arm-none-eabi/9.2.1/../../../../arm-none-eabi/lib/thumb/v7e-m+fp/hard/libc.a(lib_a-fini.o)
 .text          0x0000000000000000        0x0 /home/sean/.arduino15/packages/adafruit/tools/arm-none-eabi-gcc/9-2019q4/bin/../lib/gcc/arm-none-eabi/9.2.1/../../../../arm-none-eabi/lib/thumb/v7e-m+fp/hard/libc.a(lib_a-freer.o)
 .data          0x0000000000000000        0x0 /home/sean/.arduino15/packages/adafruit/tools/arm-none-eabi-gcc/9-2019q4/bin/../lib/gcc/arm-none-eabi/9.2.1/../../../../arm-none-eabi/lib/thumb/v7e-m+fp/hard/libc.a(lib_a-freer.o)
 .bss           0x0000000000000000        0x0 /home/sean/.arduino15/packages/adafruit/tools/arm-none-eabi-gcc/9-2019q4/bin/../lib/gcc/arm-none-eabi/9.2.1/../../../../arm-none-eabi/lib/thumb/v7e-m+fp/hard/libc.a(lib_a-freer.o)
 .text          0x0000000000000000        0x0 /home/sean/.arduino15/packages/adafruit/tools/arm-none-eabi-gcc/9-2019q4/bin/../lib/gcc/arm-none-eabi/9.2.1/../../../../arm-none-eabi/lib/thumb/v7e-m+fp/hard/libc.a(lib_a-localeconv.o)
 .data          0x0000000000000000        0x0 /home/sean/.arduino15/packages/adafruit/tools/arm-none-eabi-gcc/9-2019q4/bin/../lib/gcc/arm-none-eabi/9.2.1/../../../../arm-none-eabi/lib/thumb/v7e-m+fp/hard/libc.a(lib_a-localeconv.o)
 .bss           0x0000000000000000        0x0 /home/sean/.arduino15/packages/adafruit/tools/arm-none-eabi-gcc/9-2019q4/bin/../lib/gcc/arm-none-eabi/9.2.1/../../../../arm-none-eabi/lib/thumb/v7e-m+fp/hard/libc.a(lib_a-localeconv.o)
 .text.__localeconv_l
                0x0000000000000000        0x4 /home/sean/.arduino15/packages/adafruit/tools/arm-none-eabi-gcc/9-2019q4/bin/../lib/gcc/arm-none-eabi/9.2.1/../../../../arm-none-eabi/lib/thumb/v7e-m+fp/hard/libc.a(lib_a-localeconv.o)
 .text._localeconv_r
                0x0000000000000000        0x8 /home/sean/.arduino15/packages/adafruit/tools/arm-none-eabi-gcc/9-2019q4/bin/../lib/gcc/arm-none-eabi/9.2.1/../../../../arm-none-eabi/lib/thumb/v7e-m+fp/hard/libc.a(lib_a-localeconv.o)
 .text.localeconv
                0x0000000000000000        0x8 /home/sean/.arduino15/packages/adafruit/tools/arm-none-eabi-gcc/9-2019q4/bin/../lib/gcc/arm-none-eabi/9.2.1/../../../../arm-none-eabi/lib/thumb/v7e-m+fp/hard/libc.a(lib_a-localeconv.o)
 .debug_frame   0x0000000000000000       0x40 /home/sean/.arduino15/packages/adafruit/tools/arm-none-eabi-gcc/9-2019q4/bin/../lib/gcc/arm-none-eabi/9.2.1/../../../../arm-none-eabi/lib/thumb/v7e-m+fp/hard/libc.a(lib_a-localeconv.o)
 .ARM.attributes
                0x0000000000000000       0x34 /home/sean/.arduino15/packages/adafruit/tools/arm-none-eabi-gcc/9-2019q4/bin/../lib/gcc/arm-none-eabi/9.2.1/../../../../arm-none-eabi/lib/thumb/v7e-m+fp/hard/libc.a(lib_a-localeconv.o)
 .text          0x0000000000000000        0x0 /home/sean/.arduino15/packages/adafruit/tools/arm-none-eabi-gcc/9-2019q4/bin/../lib/gcc/arm-none-eabi/9.2.1/../../../../arm-none-eabi/lib/thumb/v7e-m+fp/hard/libc.a(lib_a-lock.o)
 .data          0x0000000000000000        0x0 /home/sean/.arduino15/packages/adafruit/tools/arm-none-eabi-gcc/9-2019q4/bin/../lib/gcc/arm-none-eabi/9.2.1/../../../../arm-none-eabi/lib/thumb/v7e-m+fp/hard/libc.a(lib_a-lock.o)
 .bss           0x0000000000000000        0x0 /home/sean/.arduino15/packages/adafruit/tools/arm-none-eabi-gcc/9-2019q4/bin/../lib/gcc/arm-none-eabi/9.2.1/../../../../arm-none-eabi/lib/thumb/v7e-m+fp/hard/libc.a(lib_a-lock.o)
 .text.__retarget_lock_init
                0x0000000000000000        0x4 /home/sean/.arduino15/packages/adafruit/tools/arm-none-eabi-gcc/9-2019q4/bin/../lib/gcc/arm-none-eabi/9.2.1/../../../../arm-none-eabi/lib/thumb/v7e-m+fp/hard/libc.a(lib_a-lock.o)
 .text.__retarget_lock_init_recursive
                0x0000000000000000        0x4 /home/sean/.arduino15/packages/adafruit/tools/arm-none-eabi-gcc/9-2019q4/bin/../lib/gcc/arm-none-eabi/9.2.1/../../../../arm-none-eabi/lib/thumb/v7e-m+fp/hard/libc.a(lib_a-lock.o)
 .text.__retarget_lock_close
                0x0000000000000000        0x4 /home/sean/.arduino15/packages/adafruit/tools/arm-none-eabi-gcc/9-2019q4/bin/../lib/gcc/arm-none-eabi/9.2.1/../../../../arm-none-eabi/lib/thumb/v7e-m+fp/hard/libc.a(lib_a-lock.o)
 .text.__retarget_lock_close_recursive
                0x0000000000000000        0x4 /home/sean/.arduino15/packages/adafruit/tools/arm-none-eabi-gcc/9-2019q4/bin/../lib/gcc/arm-none-eabi/9.2.1/../../../../arm-none-eabi/lib/thumb/v7e-m+fp/hard/libc.a(lib_a-lock.o)
 .text.__retarget_lock_acquire
                0x0000000000000000        0x4 /home/sean/.arduino15/packages/adafruit/tools/arm-none-eabi-gcc/9-2019q4/bin/../lib/gcc/arm-none-eabi/9.2.1/../../../../arm-none-eabi/lib/thumb/v7e-m+fp/hard/libc.a(lib_a-lock.o)
 .text.__retarget_lock_try_acquire
                0x0000000000000000        0x4 /home/sean/.arduino15/packages/adafruit/tools/arm-none-eabi-gcc/9-2019q4/bin/../lib/gcc/arm-none-eabi/9.2.1/../../../../arm-none-eabi/lib/thumb/v7e-m+fp/hard/libc.a(lib_a-lock.o)
 .text.__retarget_lock_try_acquire_recursive
                0x0000000000000000        0x4 /home/sean/.arduino15/packages/adafruit/tools/arm-none-eabi-gcc/9-2019q4/bin/../lib/gcc/arm-none-eabi/9.2.1/../../../../arm-none-eabi/lib/thumb/v7e-m+fp/hard/libc.a(lib_a-lock.o)
 .text.__retarget_lock_release
                0x0000000000000000        0x4 /home/sean/.arduino15/packages/adafruit/tools/arm-none-eabi-gcc/9-2019q4/bin/../lib/gcc/arm-none-eabi/9.2.1/../../../../arm-none-eabi/lib/thumb/v7e-m+fp/hard/libc.a(lib_a-lock.o)
 .text          0x0000000000000000       0xa0 /home/sean/.arduino15/packages/adafruit/tools/arm-none-eabi-gcc/9-2019q4/bin/../lib/gcc/arm-none-eabi/9.2.1/../../../../arm-none-eabi/lib/thumb/v7e-m+fp/hard/libc.a(lib_a-memchr.o)
 .data          0x0000000000000000        0x0 /home/sean/.arduino15/packages/adafruit/tools/arm-none-eabi-gcc/9-2019q4/bin/../lib/gcc/arm-none-eabi/9.2.1/../../../../arm-none-eabi/lib/thumb/v7e-m+fp/hard/libc.a(lib_a-memchr.o)
 .bss           0x0000000000000000        0x0 /home/sean/.arduino15/packages/adafruit/tools/arm-none-eabi-gcc/9-2019q4/bin/../lib/gcc/arm-none-eabi/9.2.1/../../../../arm-none-eabi/lib/thumb/v7e-m+fp/hard/libc.a(lib_a-memchr.o)
 .ARM.attributes
                0x0000000000000000       0x1c /home/sean/.arduino15/packages/adafruit/tools/arm-none-eabi-gcc/9-2019q4/bin/../lib/gcc/arm-none-eabi/9.2.1/../../../../arm-none-eabi/lib/thumb/v7e-m+fp/hard/libc.a(lib_a-memchr.o)
 .text          0x0000000000000000        0x0 /home/sean/.arduino15/packages/adafruit/tools/arm-none-eabi-gcc/9-2019q4/bin/../lib/gcc/arm-none-eabi/9.2.1/../../../../arm-none-eabi/lib/thumb/v7e-m+fp/hard/libc.a(lib_a-memmove.o)
 .data          0x0000000000000000        0x0 /home/sean/.arduino15/packages/adafruit/tools/arm-none-eabi-gcc/9-2019q4/bin/../lib/gcc/arm-none-eabi/9.2.1/../../../../arm-none-eabi/lib/thumb/v7e-m+fp/hard/libc.a(lib_a-memmove.o)
 .bss           0x0000000000000000        0x0 /home/sean/.arduino15/packages/adafruit/tools/arm-none-eabi-gcc/9-2019q4/bin/../lib/gcc/arm-none-eabi/9.2.1/../../../../arm-none-eabi/lib/thumb/v7e-m+fp/hard/libc.a(lib_a-memmove.o)
 .text.memmove  0x0000000000000000       0xd8 /home/sean/.arduino15/packages/adafruit/tools/arm-none-eabi-gcc/9-2019q4/bin/../lib/gcc/arm-none-eabi/9.2.1/../../../../arm-none-eabi/lib/thumb/v7e-m+fp/hard/libc.a(lib_a-memmove.o)
 .debug_frame   0x0000000000000000       0x40 /home/sean/.arduino15/packages/adafruit/tools/arm-none-eabi-gcc/9-2019q4/bin/../lib/gcc/arm-none-eabi/9.2.1/../../../../arm-none-eabi/lib/thumb/v7e-m+fp/hard/libc.a(lib_a-memmove.o)
 .ARM.attributes
                0x0000000000000000       0x34 /home/sean/.arduino15/packages/adafruit/tools/arm-none-eabi-gcc/9-2019q4/bin/../lib/gcc/arm-none-eabi/9.2.1/../../../../arm-none-eabi/lib/thumb/v7e-m+fp/hard/libc.a(lib_a-memmove.o)
 .text          0x0000000000000000        0x0 /home/sean/.arduino15/packages/adafruit/tools/arm-none-eabi-gcc/9-2019q4/bin/../lib/gcc/arm-none-eabi/9.2.1/../../../../arm-none-eabi/lib/thumb/v7e-m+fp/hard/libc.a(lib_a-mprec.o)
 .data          0x0000000000000000        0x0 /home/sean/.arduino15/packages/adafruit/tools/arm-none-eabi-gcc/9-2019q4/bin/../lib/gcc/arm-none-eabi/9.2.1/../../../../arm-none-eabi/lib/thumb/v7e-m+fp/hard/libc.a(lib_a-mprec.o)
 .bss           0x0000000000000000        0x0 /home/sean/.arduino15/packages/adafruit/tools/arm-none-eabi-gcc/9-2019q4/bin/../lib/gcc/arm-none-eabi/9.2.1/../../../../arm-none-eabi/lib/thumb/v7e-m+fp/hard/libc.a(lib_a-mprec.o)
 .text._Balloc  0x0000000000000000       0x4c /home/sean/.arduino15/packages/adafruit/tools/arm-none-eabi-gcc/9-2019q4/bin/../lib/gcc/arm-none-eabi/9.2.1/../../../../arm-none-eabi/lib/thumb/v7e-m+fp/hard/libc.a(lib_a-mprec.o)
 .text._Bfree   0x0000000000000000       0x14 /home/sean/.arduino15/packages/adafruit/tools/arm-none-eabi-gcc/9-2019q4/bin/../lib/gcc/arm-none-eabi/9.2.1/../../../../arm-none-eabi/lib/thumb/v7e-m+fp/hard/libc.a(lib_a-mprec.o)
 .text.__multadd
                0x0000000000000000       0x8c /home/sean/.arduino15/packages/adafruit/tools/arm-none-eabi-gcc/9-2019q4/bin/../lib/gcc/arm-none-eabi/9.2.1/../../../../arm-none-eabi/lib/thumb/v7e-m+fp/hard/libc.a(lib_a-mprec.o)
 .text.__s2b    0x0000000000000000       0xa0 /home/sean/.arduino15/packages/adafruit/tools/arm-none-eabi-gcc/9-2019q4/bin/../lib/gcc/arm-none-eabi/9.2.1/../../../../arm-none-eabi/lib/thumb/v7e-m+fp/hard/libc.a(lib_a-mprec.o)
 .text.__hi0bits
                0x0000000000000000       0x40 /home/sean/.arduino15/packages/adafruit/tools/arm-none-eabi-gcc/9-2019q4/bin/../lib/gcc/arm-none-eabi/9.2.1/../../../../arm-none-eabi/lib/thumb/v7e-m+fp/hard/libc.a(lib_a-mprec.o)
 .text.__lo0bits
                0x0000000000000000       0x60 /home/sean/.arduino15/packages/adafruit/tools/arm-none-eabi-gcc/9-2019q4/bin/../lib/gcc/arm-none-eabi/9.2.1/../../../../arm-none-eabi/lib/thumb/v7e-m+fp/hard/libc.a(lib_a-mprec.o)
 .text.__i2b    0x0000000000000000       0x14 /home/sean/.arduino15/packages/adafruit/tools/arm-none-eabi-gcc/9-2019q4/bin/../lib/gcc/arm-none-eabi/9.2.1/../../../../arm-none-eabi/lib/thumb/v7e-m+fp/hard/libc.a(lib_a-mprec.o)
 .text.__multiply
                0x0000000000000000      0x144 /home/sean/.arduino15/packages/adafruit/tools/arm-none-eabi-gcc/9-2019q4/bin/../lib/gcc/arm-none-eabi/9.2.1/../../../../arm-none-eabi/lib/thumb/v7e-m+fp/hard/libc.a(lib_a-mprec.o)
 .text.__pow5mult
                0x0000000000000000       0xa0 /home/sean/.arduino15/packages/adafruit/tools/arm-none-eabi-gcc/9-2019q4/bin/../lib/gcc/arm-none-eabi/9.2.1/../../../../arm-none-eabi/lib/thumb/v7e-m+fp/hard/libc.a(lib_a-mprec.o)
 .text.__lshift
                0x0000000000000000       0xd4 /home/sean/.arduino15/packages/adafruit/tools/arm-none-eabi-gcc/9-2019q4/bin/../lib/gcc/arm-none-eabi/9.2.1/../../../../arm-none-eabi/lib/thumb/v7e-m+fp/hard/libc.a(lib_a-mprec.o)
 .text.__mcmp   0x0000000000000000       0x3c /home/sean/.arduino15/packages/adafruit/tools/arm-none-eabi-gcc/9-2019q4/bin/../lib/gcc/arm-none-eabi/9.2.1/../../../../arm-none-eabi/lib/thumb/v7e-m+fp/hard/libc.a(lib_a-mprec.o)
 .text.__mdiff  0x0000000000000000      0x138 /home/sean/.arduino15/packages/adafruit/tools/arm-none-eabi-gcc/9-2019q4/bin/../lib/gcc/arm-none-eabi/9.2.1/../../../../arm-none-eabi/lib/thumb/v7e-m+fp/hard/libc.a(lib_a-mprec.o)
 .text.__ulp    0x0000000000000000       0x60 /home/sean/.arduino15/packages/adafruit/tools/arm-none-eabi-gcc/9-2019q4/bin/../lib/gcc/arm-none-eabi/9.2.1/../../../../arm-none-eabi/lib/thumb/v7e-m+fp/hard/libc.a(lib_a-mprec.o)
 .text.__b2d    0x0000000000000000       0xc4 /home/sean/.arduino15/packages/adafruit/tools/arm-none-eabi-gcc/9-2019q4/bin/../lib/gcc/arm-none-eabi/9.2.1/../../../../arm-none-eabi/lib/thumb/v7e-m+fp/hard/libc.a(lib_a-mprec.o)
 .text.__d2b    0x0000000000000000       0xbc /home/sean/.arduino15/packages/adafruit/tools/arm-none-eabi-gcc/9-2019q4/bin/../lib/gcc/arm-none-eabi/9.2.1/../../../../arm-none-eabi/lib/thumb/v7e-m+fp/hard/libc.a(lib_a-mprec.o)
 .text.__ratio  0x0000000000000000       0x5c /home/sean/.arduino15/packages/adafruit/tools/arm-none-eabi-gcc/9-2019q4/bin/../lib/gcc/arm-none-eabi/9.2.1/../../../../arm-none-eabi/lib/thumb/v7e-m+fp/hard/libc.a(lib_a-mprec.o)
 .text._mprec_log10
                0x0000000000000000       0x40 /home/sean/.arduino15/packages/adafruit/tools/arm-none-eabi-gcc/9-2019q4/bin/../lib/gcc/arm-none-eabi/9.2.1/../../../../arm-none-eabi/lib/thumb/v7e-m+fp/hard/libc.a(lib_a-mprec.o)
 .text.__copybits
                0x0000000000000000       0x48 /home/sean/.arduino15/packages/adafruit/tools/arm-none-eabi-gcc/9-2019q4/bin/../lib/gcc/arm-none-eabi/9.2.1/../../../../arm-none-eabi/lib/thumb/v7e-m+fp/hard/libc.a(lib_a-mprec.o)
 .text.__any_on
                0x0000000000000000       0x64 /home/sean/.arduino15/packages/adafruit/tools/arm-none-eabi-gcc/9-2019q4/bin/../lib/gcc/arm-none-eabi/9.2.1/../../../../arm-none-eabi/lib/thumb/v7e-m+fp/hard/libc.a(lib_a-mprec.o)
 .rodata.__mprec_bigtens
                0x0000000000000000       0x28 /home/sean/.arduino15/packages/adafruit/tools/arm-none-eabi-gcc/9-2019q4/bin/../lib/gcc/arm-none-eabi/9.2.1/../../../../arm-none-eabi/lib/thumb/v7e-m+fp/hard/libc.a(lib_a-mprec.o)
 .rodata.__mprec_tens
                0x0000000000000000       0xc8 /home/sean/.arduino15/packages/adafruit/tools/arm-none-eabi-gcc/9-2019q4/bin/../lib/gcc/arm-none-eabi/9.2.1/../../../../arm-none-eabi/lib/thumb/v7e-m+fp/hard/libc.a(lib_a-mprec.o)
 .rodata.__mprec_tinytens
                0x0000000000000000       0x28 /home/sean/.arduino15/packages/adafruit/tools/arm-none-eabi-gcc/9-2019q4/bin/../lib/gcc/arm-none-eabi/9.2.1/../../../../arm-none-eabi/lib/thumb/v7e-m+fp/hard/libc.a(lib_a-mprec.o)
 .rodata.p05.7478
                0x0000000000000000        0xc /home/sean/.arduino15/packages/adafruit/tools/arm-none-eabi-gcc/9-2019q4/bin/../lib/gcc/arm-none-eabi/9.2.1/../../../../arm-none-eabi/lib/thumb/v7e-m+fp/hard/libc.a(lib_a-mprec.o)
 .debug_frame   0x0000000000000000      0x278 /home/sean/.arduino15/packages/adafruit/tools/arm-none-eabi-gcc/9-2019q4/bin/../lib/gcc/arm-none-eabi/9.2.1/../../../../arm-none-eabi/lib/thumb/v7e-m+fp/hard/libc.a(lib_a-mprec.o)
 .ARM.attributes
                0x0000000000000000       0x34 /home/sean/.arduino15/packages/adafruit/tools/arm-none-eabi-gcc/9-2019q4/bin/../lib/gcc/arm-none-eabi/9.2.1/../../../../arm-none-eabi/lib/thumb/v7e-m+fp/hard/libc.a(lib_a-mprec.o)
 .text          0x0000000000000000        0x0 /home/sean/.arduino15/packages/adafruit/tools/arm-none-eabi-gcc/9-2019q4/bin/../lib/gcc/arm-none-eabi/9.2.1/../../../../arm-none-eabi/lib/thumb/v7e-m+fp/hard/libc.a(lib_a-reent.o)
 .data          0x0000000000000000        0x0 /home/sean/.arduino15/packages/adafruit/tools/arm-none-eabi-gcc/9-2019q4/bin/../lib/gcc/arm-none-eabi/9.2.1/../../../../arm-none-eabi/lib/thumb/v7e-m+fp/hard/libc.a(lib_a-reent.o)
 .bss           0x0000000000000000        0x0 /home/sean/.arduino15/packages/adafruit/tools/arm-none-eabi-gcc/9-2019q4/bin/../lib/gcc/arm-none-eabi/9.2.1/../../../../arm-none-eabi/lib/thumb/v7e-m+fp/hard/libc.a(lib_a-reent.o)
 .text.cleanup_glue
                0x0000000000000000       0x1c /home/sean/.arduino15/packages/adafruit/tools/arm-none-eabi-gcc/9-2019q4/bin/../lib/gcc/arm-none-eabi/9.2.1/../../../../arm-none-eabi/lib/thumb/v7e-m+fp/hard/libc.a(lib_a-reent.o)
 .text._reclaim_reent
                0x0000000000000000       0x84 /home/sean/.arduino15/packages/adafruit/tools/arm-none-eabi-gcc/9-2019q4/bin/../lib/gcc/arm-none-eabi/9.2.1/../../../../arm-none-eabi/lib/thumb/v7e-m+fp/hard/libc.a(lib_a-reent.o)
 .text          0x0000000000000000        0x0 /home/sean/.arduino15/packages/adafruit/tools/arm-none-eabi-gcc/9-2019q4/bin/../lib/gcc/arm-none-eabi/9.2.1/../../../../arm-none-eabi/lib/thumb/v7e-m+fp/hard/libc.a(lib_a-s_frexp.o)
 .data          0x0000000000000000        0x0 /home/sean/.arduino15/packages/adafruit/tools/arm-none-eabi-gcc/9-2019q4/bin/../lib/gcc/arm-none-eabi/9.2.1/../../../../arm-none-eabi/lib/thumb/v7e-m+fp/hard/libc.a(lib_a-s_frexp.o)
 .bss           0x0000000000000000        0x0 /home/sean/.arduino15/packages/adafruit/tools/arm-none-eabi-gcc/9-2019q4/bin/../lib/gcc/arm-none-eabi/9.2.1/../../../../arm-none-eabi/lib/thumb/v7e-m+fp/hard/libc.a(lib_a-s_frexp.o)
 .text.frexp    0x0000000000000000       0x6c /home/sean/.arduino15/packages/adafruit/tools/arm-none-eabi-gcc/9-2019q4/bin/../lib/gcc/arm-none-eabi/9.2.1/../../../../arm-none-eabi/lib/thumb/v7e-m+fp/hard/libc.a(lib_a-s_frexp.o)
 .debug_frame   0x0000000000000000       0x2c /home/sean/.arduino15/packages/adafruit/tools/arm-none-eabi-gcc/9-2019q4/bin/../lib/gcc/arm-none-eabi/9.2.1/../../../../arm-none-eabi/lib/thumb/v7e-m+fp/hard/libc.a(lib_a-s_frexp.o)
 .ARM.attributes
                0x0000000000000000       0x34 /home/sean/.arduino15/packages/adafruit/tools/arm-none-eabi-gcc/9-2019q4/bin/../lib/gcc/arm-none-eabi/9.2.1/../../../../arm-none-eabi/lib/thumb/v7e-m+fp/hard/libc.a(lib_a-s_frexp.o)
 .text          0x0000000000000000        0x0 /home/sean/.arduino15/packages/adafruit/tools/arm-none-eabi-gcc/9-2019q4/bin/../lib/gcc/arm-none-eabi/9.2.1/../../../../arm-none-eabi/lib/thumb/v7e-m+fp/hard/libc.a(lib_a-strncpy.o)
 .data          0x0000000000000000        0x0 /home/sean/.arduino15/packages/adafruit/tools/arm-none-eabi-gcc/9-2019q4/bin/../lib/gcc/arm-none-eabi/9.2.1/../../../../arm-none-eabi/lib/thumb/v7e-m+fp/hard/libc.a(lib_a-strncpy.o)
 .bss           0x0000000000000000        0x0 /home/sean/.arduino15/packages/adafruit/tools/arm-none-eabi-gcc/9-2019q4/bin/../lib/gcc/arm-none-eabi/9.2.1/../../../../arm-none-eabi/lib/thumb/v7e-m+fp/hard/libc.a(lib_a-strncpy.o)
 .text.strncpy  0x0000000000000000       0x68 /home/sean/.arduino15/packages/adafruit/tools/arm-none-eabi-gcc/9-2019q4/bin/../lib/gcc/arm-none-eabi/9.2.1/../../../../arm-none-eabi/lib/thumb/v7e-m+fp/hard/libc.a(lib_a-strncpy.o)
 .debug_frame   0x0000000000000000       0x38 /home/sean/.arduino15/packages/adafruit/tools/arm-none-eabi-gcc/9-2019q4/bin/../lib/gcc/arm-none-eabi/9.2.1/../../../../arm-none-eabi/lib/thumb/v7e-m+fp/hard/libc.a(lib_a-strncpy.o)
 .ARM.attributes
                0x0000000000000000       0x34 /home/sean/.arduino15/packages/adafruit/tools/arm-none-eabi-gcc/9-2019q4/bin/../lib/gcc/arm-none-eabi/9.2.1/../../../../arm-none-eabi/lib/thumb/v7e-m+fp/hard/libc.a(lib_a-strncpy.o)
 .text          0x0000000000000000        0x0 /home/sean/.arduino15/packages/adafruit/tools/arm-none-eabi-gcc/9-2019q4/bin/../lib/gcc/arm-none-eabi/9.2.1/../../../../arm-none-eabi/lib/thumb/v7e-m+fp/hard/libc.a(lib_a-svfiprintf.o)
 .data          0x0000000000000000        0x0 /home/sean/.arduino15/packages/adafruit/tools/arm-none-eabi-gcc/9-2019q4/bin/../lib/gcc/arm-none-eabi/9.2.1/../../../../arm-none-eabi/lib/thumb/v7e-m+fp/hard/libc.a(lib_a-svfiprintf.o)
 .bss           0x0000000000000000        0x0 /home/sean/.arduino15/packages/adafruit/tools/arm-none-eabi-gcc/9-2019q4/bin/../lib/gcc/arm-none-eabi/9.2.1/../../../../arm-none-eabi/lib/thumb/v7e-m+fp/hard/libc.a(lib_a-svfiprintf.o)
 .text.__ssprint_r
                0x0000000000000000       0xf8 /home/sean/.arduino15/packages/adafruit/tools/arm-none-eabi-gcc/9-2019q4/bin/../lib/gcc/arm-none-eabi/9.2.1/../../../../arm-none-eabi/lib/thumb/v7e-m+fp/hard/libc.a(lib_a-svfiprintf.o)
 .rodata._svfiprintf_r.str1.4
                0x0000000000000000       0x2f /home/sean/.arduino15/packages/adafruit/tools/arm-none-eabi-gcc/9-2019q4/bin/../lib/gcc/arm-none-eabi/9.2.1/../../../../arm-none-eabi/lib/thumb/v7e-m+fp/hard/libc.a(lib_a-svfiprintf.o)
 .text._svfiprintf_r
                0x0000000000000000      0xb6c /home/sean/.arduino15/packages/adafruit/tools/arm-none-eabi-gcc/9-2019q4/bin/../lib/gcc/arm-none-eabi/9.2.1/../../../../arm-none-eabi/lib/thumb/v7e-m+fp/hard/libc.a(lib_a-svfiprintf.o)
 .rodata.blanks.8687
                0x0000000000000000       0x10 /home/sean/.arduino15/packages/adafruit/tools/arm-none-eabi-gcc/9-2019q4/bin/../lib/gcc/arm-none-eabi/9.2.1/../../../../arm-none-eabi/lib/thumb/v7e-m+fp/hard/libc.a(lib_a-svfiprintf.o)
 .rodata.zeroes.8688
                0x0000000000000000       0x10 /home/sean/.arduino15/packages/adafruit/tools/arm-none-eabi-gcc/9-2019q4/bin/../lib/gcc/arm-none-eabi/9.2.1/../../../../arm-none-eabi/lib/thumb/v7e-m+fp/hard/libc.a(lib_a-svfiprintf.o)
 .debug_frame   0x0000000000000000       0x88 /home/sean/.arduino15/packages/adafruit/tools/arm-none-eabi-gcc/9-2019q4/bin/../lib/gcc/arm-none-eabi/9.2.1/../../../../arm-none-eabi/lib/thumb/v7e-m+fp/hard/libc.a(lib_a-svfiprintf.o)
 .ARM.attributes
                0x0000000000000000       0x34 /home/sean/.arduino15/packages/adafruit/tools/arm-none-eabi-gcc/9-2019q4/bin/../lib/gcc/arm-none-eabi/9.2.1/../../../../arm-none-eabi/lib/thumb/v7e-m+fp/hard/libc.a(lib_a-svfiprintf.o)
 .text          0x0000000000000000        0x0 /home/sean/.arduino15/packages/adafruit/tools/arm-none-eabi-gcc/9-2019q4/bin/../lib/gcc/arm-none-eabi/9.2.1/../../../../arm-none-eabi/lib/thumb/v7e-m+fp/hard/libc.a(lib_a-__atexit.o)
 .data          0x0000000000000000        0x0 /home/sean/.arduino15/packages/adafruit/tools/arm-none-eabi-gcc/9-2019q4/bin/../lib/gcc/arm-none-eabi/9.2.1/../../../../arm-none-eabi/lib/thumb/v7e-m+fp/hard/libc.a(lib_a-__atexit.o)
 .bss           0x0000000000000000        0x0 /home/sean/.arduino15/packages/adafruit/tools/arm-none-eabi-gcc/9-2019q4/bin/../lib/gcc/arm-none-eabi/9.2.1/../../../../arm-none-eabi/lib/thumb/v7e-m+fp/hard/libc.a(lib_a-__atexit.o)
 .text          0x0000000000000000        0x0 /home/sean/.arduino15/packages/adafruit/tools/arm-none-eabi-gcc/9-2019q4/bin/../lib/gcc/arm-none-eabi/9.2.1/../../../../arm-none-eabi/lib/thumb/v7e-m+fp/hard/libc.a(lib_a-locale.o)
 .data          0x0000000000000000        0x0 /home/sean/.arduino15/packages/adafruit/tools/arm-none-eabi-gcc/9-2019q4/bin/../lib/gcc/arm-none-eabi/9.2.1/../../../../arm-none-eabi/lib/thumb/v7e-m+fp/hard/libc.a(lib_a-locale.o)
 .bss           0x0000000000000000        0x0 /home/sean/.arduino15/packages/adafruit/tools/arm-none-eabi-gcc/9-2019q4/bin/../lib/gcc/arm-none-eabi/9.2.1/../../../../arm-none-eabi/lib/thumb/v7e-m+fp/hard/libc.a(lib_a-locale.o)
 .rodata._setlocale_r.str1.4
                0x0000000000000000        0xd /home/sean/.arduino15/packages/adafruit/tools/arm-none-eabi-gcc/9-2019q4/bin/../lib/gcc/arm-none-eabi/9.2.1/../../../../arm-none-eabi/lib/thumb/v7e-m+fp/hard/libc.a(lib_a-locale.o)
 .text._setlocale_r
                0x0000000000000000       0x40 /home/sean/.arduino15/packages/adafruit/tools/arm-none-eabi-gcc/9-2019q4/bin/../lib/gcc/arm-none-eabi/9.2.1/../../../../arm-none-eabi/lib/thumb/v7e-m+fp/hard/libc.a(lib_a-locale.o)
 .text.__locale_mb_cur_max
                0x0000000000000000        0xc /home/sean/.arduino15/packages/adafruit/tools/arm-none-eabi-gcc/9-2019q4/bin/../lib/gcc/arm-none-eabi/9.2.1/../../../../arm-none-eabi/lib/thumb/v7e-m+fp/hard/libc.a(lib_a-locale.o)
 .text.setlocale
                0x0000000000000000       0x10 /home/sean/.arduino15/packages/adafruit/tools/arm-none-eabi-gcc/9-2019q4/bin/../lib/gcc/arm-none-eabi/9.2.1/../../../../arm-none-eabi/lib/thumb/v7e-m+fp/hard/libc.a(lib_a-locale.o)
 .rodata.str1.4
                0x0000000000000000        0x2 /home/sean/.arduino15/packages/adafruit/tools/arm-none-eabi-gcc/9-2019q4/bin/../lib/gcc/arm-none-eabi/9.2.1/../../../../arm-none-eabi/lib/thumb/v7e-m+fp/hard/libc.a(lib_a-locale.o)
 .bss._PathLocale
                0x0000000000000000        0x4 /home/sean/.arduino15/packages/adafruit/tools/arm-none-eabi-gcc/9-2019q4/bin/../lib/gcc/arm-none-eabi/9.2.1/../../../../arm-none-eabi/lib/thumb/v7e-m+fp/hard/libc.a(lib_a-locale.o)
 .data.__global_locale
                0x0000000000000000      0x16c /home/sean/.arduino15/packages/adafruit/tools/arm-none-eabi-gcc/9-2019q4/bin/../lib/gcc/arm-none-eabi/9.2.1/../../../../arm-none-eabi/lib/thumb/v7e-m+fp/hard/libc.a(lib_a-locale.o)
 .debug_frame   0x0000000000000000       0x54 /home/sean/.arduino15/packages/adafruit/tools/arm-none-eabi-gcc/9-2019q4/bin/../lib/gcc/arm-none-eabi/9.2.1/../../../../arm-none-eabi/lib/thumb/v7e-m+fp/hard/libc.a(lib_a-locale.o)
 .ARM.attributes
                0x0000000000000000       0x34 /home/sean/.arduino15/packages/adafruit/tools/arm-none-eabi-gcc/9-2019q4/bin/../lib/gcc/arm-none-eabi/9.2.1/../../../../arm-none-eabi/lib/thumb/v7e-m+fp/hard/libc.a(lib_a-locale.o)
 .text          0x0000000000000000        0x0 /home/sean/.arduino15/packages/adafruit/tools/arm-none-eabi-gcc/9-2019q4/bin/../lib/gcc/arm-none-eabi/9.2.1/../../../../arm-none-eabi/lib/thumb/v7e-m+fp/hard/libc.a(lib_a-mbtowc_r.o)
 .data          0x0000000000000000        0x0 /home/sean/.arduino15/packages/adafruit/tools/arm-none-eabi-gcc/9-2019q4/bin/../lib/gcc/arm-none-eabi/9.2.1/../../../../arm-none-eabi/lib/thumb/v7e-m+fp/hard/libc.a(lib_a-mbtowc_r.o)
 .bss           0x0000000000000000        0x0 /home/sean/.arduino15/packages/adafruit/tools/arm-none-eabi-gcc/9-2019q4/bin/../lib/gcc/arm-none-eabi/9.2.1/../../../../arm-none-eabi/lib/thumb/v7e-m+fp/hard/libc.a(lib_a-mbtowc_r.o)
 .text._mbtowc_r
                0x0000000000000000       0x14 /home/sean/.arduino15/packages/adafruit/tools/arm-none-eabi-gcc/9-2019q4/bin/../lib/gcc/arm-none-eabi/9.2.1/../../../../arm-none-eabi/lib/thumb/v7e-m+fp/hard/libc.a(lib_a-mbtowc_r.o)
 .text.__ascii_mbtowc
                0x0000000000000000       0x2c /home/sean/.arduino15/packages/adafruit/tools/arm-none-eabi-gcc/9-2019q4/bin/../lib/gcc/arm-none-eabi/9.2.1/../../../../arm-none-eabi/lib/thumb/v7e-m+fp/hard/libc.a(lib_a-mbtowc_r.o)
 .debug_frame   0x0000000000000000       0x4c /home/sean/.arduino15/packages/adafruit/tools/arm-none-eabi-gcc/9-2019q4/bin/../lib/gcc/arm-none-eabi/9.2.1/../../../../arm-none-eabi/lib/thumb/v7e-m+fp/hard/libc.a(lib_a-mbtowc_r.o)
 .ARM.attributes
                0x0000000000000000       0x34 /home/sean/.arduino15/packages/adafruit/tools/arm-none-eabi-gcc/9-2019q4/bin/../lib/gcc/arm-none-eabi/9.2.1/../../../../arm-none-eabi/lib/thumb/v7e-m+fp/hard/libc.a(lib_a-mbtowc_r.o)
 .text          0x0000000000000000      0x2dc /home/sean/.arduino15/packages/adafruit/tools/arm-none-eabi-gcc/9-2019q4/bin/../lib/gcc/arm-none-eabi/9.2.1/../../../../arm-none-eabi/lib/thumb/v7e-m+fp/hard/libc.a(lib_a-strcmp.o)
 .data          0x0000000000000000        0x0 /home/sean/.arduino15/packages/adafruit/tools/arm-none-eabi-gcc/9-2019q4/bin/../lib/gcc/arm-none-eabi/9.2.1/../../../../arm-none-eabi/lib/thumb/v7e-m+fp/hard/libc.a(lib_a-strcmp.o)
 .bss           0x0000000000000000        0x0 /home/sean/.arduino15/packages/adafruit/tools/arm-none-eabi-gcc/9-2019q4/bin/../lib/gcc/arm-none-eabi/9.2.1/../../../../arm-none-eabi/lib/thumb/v7e-m+fp/hard/libc.a(lib_a-strcmp.o)
 .debug_frame   0x0000000000000000       0x68 /home/sean/.arduino15/packages/adafruit/tools/arm-none-eabi-gcc/9-2019q4/bin/../lib/gcc/arm-none-eabi/9.2.1/../../../../arm-none-eabi/lib/thumb/v7e-m+fp/hard/libc.a(lib_a-strcmp.o)
 .ARM.attributes
                0x0000000000000000       0x1c /home/sean/.arduino15/packages/adafruit/tools/arm-none-eabi-gcc/9-2019q4/bin/../lib/gcc/arm-none-eabi/9.2.1/../../../../arm-none-eabi/lib/thumb/v7e-m+fp/hard/libc.a(lib_a-strcmp.o)
 .text          0x0000000000000000        0x0 /home/sean/.arduino15/packages/adafruit/tools/arm-none-eabi-gcc/9-2019q4/bin/../lib/gcc/arm-none-eabi/9.2.1/../../../../arm-none-eabi/lib/thumb/v7e-m+fp/hard/libc.a(lib_a-wctomb_r.o)
 .data          0x0000000000000000        0x0 /home/sean/.arduino15/packages/adafruit/tools/arm-none-eabi-gcc/9-2019q4/bin/../lib/gcc/arm-none-eabi/9.2.1/../../../../arm-none-eabi/lib/thumb/v7e-m+fp/hard/libc.a(lib_a-wctomb_r.o)
 .bss           0x0000000000000000        0x0 /home/sean/.arduino15/packages/adafruit/tools/arm-none-eabi-gcc/9-2019q4/bin/../lib/gcc/arm-none-eabi/9.2.1/../../../../arm-none-eabi/lib/thumb/v7e-m+fp/hard/libc.a(lib_a-wctomb_r.o)
 .text._wctomb_r
                0x0000000000000000       0x14 /home/sean/.arduino15/packages/adafruit/tools/arm-none-eabi-gcc/9-2019q4/bin/../lib/gcc/arm-none-eabi/9.2.1/../../../../arm-none-eabi/lib/thumb/v7e-m+fp/hard/libc.a(lib_a-wctomb_r.o)
 .text.__ascii_wctomb
                0x0000000000000000       0x1c /home/sean/.arduino15/packages/adafruit/tools/arm-none-eabi-gcc/9-2019q4/bin/../lib/gcc/arm-none-eabi/9.2.1/../../../../arm-none-eabi/lib/thumb/v7e-m+fp/hard/libc.a(lib_a-wctomb_r.o)
 .debug_frame   0x0000000000000000       0x3c /home/sean/.arduino15/packages/adafruit/tools/arm-none-eabi-gcc/9-2019q4/bin/../lib/gcc/arm-none-eabi/9.2.1/../../../../arm-none-eabi/lib/thumb/v7e-m+fp/hard/libc.a(lib_a-wctomb_r.o)
 .ARM.attributes
                0x0000000000000000       0x34 /home/sean/.arduino15/packages/adafruit/tools/arm-none-eabi-gcc/9-2019q4/bin/../lib/gcc/arm-none-eabi/9.2.1/../../../../arm-none-eabi/lib/thumb/v7e-m+fp/hard/libc.a(lib_a-wctomb_r.o)
 .text          0x0000000000000000        0x0 /home/sean/.arduino15/packages/adafruit/tools/arm-none-eabi-gcc/9-2019q4/bin/../lib/gcc/arm-none-eabi/9.2.1/../../../../arm-none-eabi/lib/thumb/v7e-m+fp/hard/libc.a(lib_a-ctype_.o)
 .data          0x0000000000000000        0x0 /home/sean/.arduino15/packages/adafruit/tools/arm-none-eabi-gcc/9-2019q4/bin/../lib/gcc/arm-none-eabi/9.2.1/../../../../arm-none-eabi/lib/thumb/v7e-m+fp/hard/libc.a(lib_a-ctype_.o)
 .bss           0x0000000000000000        0x0 /home/sean/.arduino15/packages/adafruit/tools/arm-none-eabi-gcc/9-2019q4/bin/../lib/gcc/arm-none-eabi/9.2.1/../../../../arm-none-eabi/lib/thumb/v7e-m+fp/hard/libc.a(lib_a-ctype_.o)
 .rodata._ctype_
                0x0000000000000000      0x101 /home/sean/.arduino15/packages/adafruit/tools/arm-none-eabi-gcc/9-2019q4/bin/../lib/gcc/arm-none-eabi/9.2.1/../../../../arm-none-eabi/lib/thumb/v7e-m+fp/hard/libc.a(lib_a-ctype_.o)
 .ARM.attributes
                0x0000000000000000       0x32 /home/sean/.arduino15/packages/adafruit/tools/arm-none-eabi-gcc/9-2019q4/bin/../lib/gcc/arm-none-eabi/9.2.1/../../../../arm-none-eabi/lib/thumb/v7e-m+fp/hard/libc.a(lib_a-ctype_.o)
 .text          0x0000000000000000      0x254 /home/sean/.arduino15/packages/adafruit/tools/arm-none-eabi-gcc/9-2019q4/bin/../lib/gcc/arm-none-eabi/9.2.1/thumb/v7e-m+fp/hard/libgcc.a(_arm_muldf3.o)
 .data          0x0000000000000000        0x0 /home/sean/.arduino15/packages/adafruit/tools/arm-none-eabi-gcc/9-2019q4/bin/../lib/gcc/arm-none-eabi/9.2.1/thumb/v7e-m+fp/hard/libgcc.a(_arm_muldf3.o)
 .bss           0x0000000000000000        0x0 /home/sean/.arduino15/packages/adafruit/tools/arm-none-eabi-gcc/9-2019q4/bin/../lib/gcc/arm-none-eabi/9.2.1/thumb/v7e-m+fp/hard/libgcc.a(_arm_muldf3.o)
 .debug_frame   0x0000000000000000       0x30 /home/sean/.arduino15/packages/adafruit/tools/arm-none-eabi-gcc/9-2019q4/bin/../lib/gcc/arm-none-eabi/9.2.1/thumb/v7e-m+fp/hard/libgcc.a(_arm_muldf3.o)
 .ARM.attributes
                0x0000000000000000       0x1e /home/sean/.arduino15/packages/adafruit/tools/arm-none-eabi-gcc/9-2019q4/bin/../lib/gcc/arm-none-eabi/9.2.1/thumb/v7e-m+fp/hard/libgcc.a(_arm_muldf3.o)
 .text          0x0000000000000000      0x378 /home/sean/.arduino15/packages/adafruit/tools/arm-none-eabi-gcc/9-2019q4/bin/../lib/gcc/arm-none-eabi/9.2.1/thumb/v7e-m+fp/hard/libgcc.a(_arm_addsubdf3.o)
 .data          0x0000000000000000        0x0 /home/sean/.arduino15/packages/adafruit/tools/arm-none-eabi-gcc/9-2019q4/bin/../lib/gcc/arm-none-eabi/9.2.1/thumb/v7e-m+fp/hard/libgcc.a(_arm_addsubdf3.o)
 .bss           0x0000000000000000        0x0 /home/sean/.arduino15/packages/adafruit/tools/arm-none-eabi-gcc/9-2019q4/bin/../lib/gcc/arm-none-eabi/9.2.1/thumb/v7e-m+fp/hard/libgcc.a(_arm_addsubdf3.o)
 .debug_frame   0x0000000000000000       0xac /home/sean/.arduino15/packages/adafruit/tools/arm-none-eabi-gcc/9-2019q4/bin/../lib/gcc/arm-none-eabi/9.2.1/thumb/v7e-m+fp/hard/libgcc.a(_arm_addsubdf3.o)
 .ARM.attributes
                0x0000000000000000       0x1e /home/sean/.arduino15/packages/adafruit/tools/arm-none-eabi-gcc/9-2019q4/bin/../lib/gcc/arm-none-eabi/9.2.1/thumb/v7e-m+fp/hard/libgcc.a(_arm_addsubdf3.o)
 .text          0x0000000000000000      0x424 /home/sean/.arduino15/packages/adafruit/tools/arm-none-eabi-gcc/9-2019q4/bin/../lib/gcc/arm-none-eabi/9.2.1/thumb/v7e-m+fp/hard/libgcc.a(_arm_muldivdf3.o)
 .data          0x0000000000000000        0x0 /home/sean/.arduino15/packages/adafruit/tools/arm-none-eabi-gcc/9-2019q4/bin/../lib/gcc/arm-none-eabi/9.2.1/thumb/v7e-m+fp/hard/libgcc.a(_arm_muldivdf3.o)
 .bss           0x0000000000000000        0x0 /home/sean/.arduino15/packages/adafruit/tools/arm-none-eabi-gcc/9-2019q4/bin/../lib/gcc/arm-none-eabi/9.2.1/thumb/v7e-m+fp/hard/libgcc.a(_arm_muldivdf3.o)
 .debug_frame   0x0000000000000000       0x50 /home/sean/.arduino15/packages/adafruit/tools/arm-none-eabi-gcc/9-2019q4/bin/../lib/gcc/arm-none-eabi/9.2.1/thumb/v7e-m+fp/hard/libgcc.a(_arm_muldivdf3.o)
 .ARM.attributes
                0x0000000000000000       0x1e /home/sean/.arduino15/packages/adafruit/tools/arm-none-eabi-gcc/9-2019q4/bin/../lib/gcc/arm-none-eabi/9.2.1/thumb/v7e-m+fp/hard/libgcc.a(_arm_muldivdf3.o)
 .text          0x0000000000000000      0x110 /home/sean/.arduino15/packages/adafruit/tools/arm-none-eabi-gcc/9-2019q4/bin/../lib/gcc/arm-none-eabi/9.2.1/thumb/v7e-m+fp/hard/libgcc.a(_arm_cmpdf2.o)
 .data          0x0000000000000000        0x0 /home/sean/.arduino15/packages/adafruit/tools/arm-none-eabi-gcc/9-2019q4/bin/../lib/gcc/arm-none-eabi/9.2.1/thumb/v7e-m+fp/hard/libgcc.a(_arm_cmpdf2.o)
 .bss           0x0000000000000000        0x0 /home/sean/.arduino15/packages/adafruit/tools/arm-none-eabi-gcc/9-2019q4/bin/../lib/gcc/arm-none-eabi/9.2.1/thumb/v7e-m+fp/hard/libgcc.a(_arm_cmpdf2.o)
 .debug_frame   0x0000000000000000       0xc4 /home/sean/.arduino15/packages/adafruit/tools/arm-none-eabi-gcc/9-2019q4/bin/../lib/gcc/arm-none-eabi/9.2.1/thumb/v7e-m+fp/hard/libgcc.a(_arm_cmpdf2.o)
 .ARM.attributes
                0x0000000000000000       0x1e /home/sean/.arduino15/packages/adafruit/tools/arm-none-eabi-gcc/9-2019q4/bin/../lib/gcc/arm-none-eabi/9.2.1/thumb/v7e-m+fp/hard/libgcc.a(_arm_cmpdf2.o)
 .text          0x0000000000000000       0x2c /home/sean/.arduino15/packages/adafruit/tools/arm-none-eabi-gcc/9-2019q4/bin/../lib/gcc/arm-none-eabi/9.2.1/thumb/v7e-m+fp/hard/libgcc.a(_arm_unorddf2.o)
 .data          0x0000000000000000        0x0 /home/sean/.arduino15/packages/adafruit/tools/arm-none-eabi-gcc/9-2019q4/bin/../lib/gcc/arm-none-eabi/9.2.1/thumb/v7e-m+fp/hard/libgcc.a(_arm_unorddf2.o)
 .bss           0x0000000000000000        0x0 /home/sean/.arduino15/packages/adafruit/tools/arm-none-eabi-gcc/9-2019q4/bin/../lib/gcc/arm-none-eabi/9.2.1/thumb/v7e-m+fp/hard/libgcc.a(_arm_unorddf2.o)
 .debug_frame   0x0000000000000000       0x20 /home/sean/.arduino15/packages/adafruit/tools/arm-none-eabi-gcc/9-2019q4/bin/../lib/gcc/arm-none-eabi/9.2.1/thumb/v7e-m+fp/hard/libgcc.a(_arm_unorddf2.o)
 .ARM.attributes
                0x0000000000000000       0x1e /home/sean/.arduino15/packages/adafruit/tools/arm-none-eabi-gcc/9-2019q4/bin/../lib/gcc/arm-none-eabi/9.2.1/thumb/v7e-m+fp/hard/libgcc.a(_arm_unorddf2.o)
 .text          0x0000000000000000       0x50 /home/sean/.arduino15/packages/adafruit/tools/arm-none-eabi-gcc/9-2019q4/bin/../lib/gcc/arm-none-eabi/9.2.1/thumb/v7e-m+fp/hard/libgcc.a(_arm_fixdfsi.o)
 .data          0x0000000000000000        0x0 /home/sean/.arduino15/packages/adafruit/tools/arm-none-eabi-gcc/9-2019q4/bin/../lib/gcc/arm-none-eabi/9.2.1/thumb/v7e-m+fp/hard/libgcc.a(_arm_fixdfsi.o)
 .bss           0x0000000000000000        0x0 /home/sean/.arduino15/packages/adafruit/tools/arm-none-eabi-gcc/9-2019q4/bin/../lib/gcc/arm-none-eabi/9.2.1/thumb/v7e-m+fp/hard/libgcc.a(_arm_fixdfsi.o)
 .debug_frame   0x0000000000000000       0x24 /home/sean/.arduino15/packages/adafruit/tools/arm-none-eabi-gcc/9-2019q4/bin/../lib/gcc/arm-none-eabi/9.2.1/thumb/v7e-m+fp/hard/libgcc.a(_arm_fixdfsi.o)
 .ARM.attributes
                0x0000000000000000       0x1e /home/sean/.arduino15/packages/adafruit/tools/arm-none-eabi-gcc/9-2019q4/bin/../lib/gcc/arm-none-eabi/9.2.1/thumb/v7e-m+fp/hard/libgcc.a(_arm_fixdfsi.o)
 .text          0x0000000000000000       0x30 /home/sean/.arduino15/packages/adafruit/tools/arm-none-eabi-gcc/9-2019q4/bin/../lib/gcc/arm-none-eabi/9.2.1/thumb/v7e-m+fp/hard/libgcc.a(_aeabi_uldivmod.o)
 .data          0x0000000000000000        0x0 /home/sean/.arduino15/packages/adafruit/tools/arm-none-eabi-gcc/9-2019q4/bin/../lib/gcc/arm-none-eabi/9.2.1/thumb/v7e-m+fp/hard/libgcc.a(_aeabi_uldivmod.o)
 .bss           0x0000000000000000        0x0 /home/sean/.arduino15/packages/adafruit/tools/arm-none-eabi-gcc/9-2019q4/bin/../lib/gcc/arm-none-eabi/9.2.1/thumb/v7e-m+fp/hard/libgcc.a(_aeabi_uldivmod.o)
 .debug_frame   0x0000000000000000       0x2c /home/sean/.arduino15/packages/adafruit/tools/arm-none-eabi-gcc/9-2019q4/bin/../lib/gcc/arm-none-eabi/9.2.1/thumb/v7e-m+fp/hard/libgcc.a(_aeabi_uldivmod.o)
 .ARM.attributes
                0x0000000000000000       0x1e /home/sean/.arduino15/packages/adafruit/tools/arm-none-eabi-gcc/9-2019q4/bin/../lib/gcc/arm-none-eabi/9.2.1/thumb/v7e-m+fp/hard/libgcc.a(_aeabi_uldivmod.o)
 .text          0x0000000000000000      0x2c4 /home/sean/.arduino15/packages/adafruit/tools/arm-none-eabi-gcc/9-2019q4/bin/../lib/gcc/arm-none-eabi/9.2.1/thumb/v7e-m+fp/hard/libgcc.a(_udivmoddi4.o)
 .data          0x0000000000000000        0x0 /home/sean/.arduino15/packages/adafruit/tools/arm-none-eabi-gcc/9-2019q4/bin/../lib/gcc/arm-none-eabi/9.2.1/thumb/v7e-m+fp/hard/libgcc.a(_udivmoddi4.o)
 .bss           0x0000000000000000        0x0 /home/sean/.arduino15/packages/adafruit/tools/arm-none-eabi-gcc/9-2019q4/bin/../lib/gcc/arm-none-eabi/9.2.1/thumb/v7e-m+fp/hard/libgcc.a(_udivmoddi4.o)
 .ARM.extab     0x0000000000000000        0x0 /home/sean/.arduino15/packages/adafruit/tools/arm-none-eabi-gcc/9-2019q4/bin/../lib/gcc/arm-none-eabi/9.2.1/thumb/v7e-m+fp/hard/libgcc.a(_udivmoddi4.o)
 .ARM.exidx     0x0000000000000000        0x8 /home/sean/.arduino15/packages/adafruit/tools/arm-none-eabi-gcc/9-2019q4/bin/../lib/gcc/arm-none-eabi/9.2.1/thumb/v7e-m+fp/hard/libgcc.a(_udivmoddi4.o)
 .debug_frame   0x0000000000000000       0x34 /home/sean/.arduino15/packages/adafruit/tools/arm-none-eabi-gcc/9-2019q4/bin/../lib/gcc/arm-none-eabi/9.2.1/thumb/v7e-m+fp/hard/libgcc.a(_udivmoddi4.o)
 .ARM.attributes
                0x0000000000000000       0x34 /home/sean/.arduino15/packages/adafruit/tools/arm-none-eabi-gcc/9-2019q4/bin/../lib/gcc/arm-none-eabi/9.2.1/thumb/v7e-m+fp/hard/libgcc.a(_udivmoddi4.o)
 .text          0x0000000000000000        0x4 /home/sean/.arduino15/packages/adafruit/tools/arm-none-eabi-gcc/9-2019q4/bin/../lib/gcc/arm-none-eabi/9.2.1/thumb/v7e-m+fp/hard/libgcc.a(_dvmd_tls.o)
 .data          0x0000000000000000        0x0 /home/sean/.arduino15/packages/adafruit/tools/arm-none-eabi-gcc/9-2019q4/bin/../lib/gcc/arm-none-eabi/9.2.1/thumb/v7e-m+fp/hard/libgcc.a(_dvmd_tls.o)
 .bss           0x0000000000000000        0x0 /home/sean/.arduino15/packages/adafruit/tools/arm-none-eabi-gcc/9-2019q4/bin/../lib/gcc/arm-none-eabi/9.2.1/thumb/v7e-m+fp/hard/libgcc.a(_dvmd_tls.o)
 .ARM.attributes
                0x0000000000000000       0x1e /home/sean/.arduino15/packages/adafruit/tools/arm-none-eabi-gcc/9-2019q4/bin/../lib/gcc/arm-none-eabi/9.2.1/thumb/v7e-m+fp/hard/libgcc.a(_dvmd_tls.o)
 .text          0x0000000000000000        0x0 /home/sean/.arduino15/packages/adafruit/tools/arm-none-eabi-gcc/9-2019q4/bin/../lib/gcc/arm-none-eabi/9.2.1/../../../../arm-none-eabi/lib/thumb/v7e-m+fp/hard/libnosys.a(sbrk.o)
 .data          0x0000000000000000        0x0 /home/sean/.arduino15/packages/adafruit/tools/arm-none-eabi-gcc/9-2019q4/bin/../lib/gcc/arm-none-eabi/9.2.1/../../../../arm-none-eabi/lib/thumb/v7e-m+fp/hard/libnosys.a(sbrk.o)
 .bss           0x0000000000000000        0x0 /home/sean/.arduino15/packages/adafruit/tools/arm-none-eabi-gcc/9-2019q4/bin/../lib/gcc/arm-none-eabi/9.2.1/../../../../arm-none-eabi/lib/thumb/v7e-m+fp/hard/libnosys.a(sbrk.o)
 .text          0x0000000000000000        0x0 /home/sean/.arduino15/packages/adafruit/tools/arm-none-eabi-gcc/9-2019q4/bin/../lib/gcc/arm-none-eabi/9.2.1/../../../../arm-none-eabi/lib/thumb/v7e-m+fp/hard/libnosys.a(_exit.o)
 .data          0x0000000000000000        0x0 /home/sean/.arduino15/packages/adafruit/tools/arm-none-eabi-gcc/9-2019q4/bin/../lib/gcc/arm-none-eabi/9.2.1/../../../../arm-none-eabi/lib/thumb/v7e-m+fp/hard/libnosys.a(_exit.o)
 .bss           0x0000000000000000        0x0 /home/sean/.arduino15/packages/adafruit/tools/arm-none-eabi-gcc/9-2019q4/bin/../lib/gcc/arm-none-eabi/9.2.1/../../../../arm-none-eabi/lib/thumb/v7e-m+fp/hard/libnosys.a(_exit.o)
 .text          0x0000000000000000        0x0 /home/sean/.arduino15/packages/adafruit/tools/arm-none-eabi-gcc/9-2019q4/bin/../lib/gcc/arm-none-eabi/9.2.1/thumb/v7e-m+fp/hard/crtend.o
 .data          0x0000000000000000        0x0 /home/sean/.arduino15/packages/adafruit/tools/arm-none-eabi-gcc/9-2019q4/bin/../lib/gcc/arm-none-eabi/9.2.1/thumb/v7e-m+fp/hard/crtend.o
 .bss           0x0000000000000000        0x0 /home/sean/.arduino15/packages/adafruit/tools/arm-none-eabi-gcc/9-2019q4/bin/../lib/gcc/arm-none-eabi/9.2.1/thumb/v7e-m+fp/hard/crtend.o
 .text          0x0000000000000000        0x0 /home/sean/.arduino15/packages/adafruit/tools/arm-none-eabi-gcc/9-2019q4/bin/../lib/gcc/arm-none-eabi/9.2.1/thumb/v7e-m+fp/hard/crtn.o
 .data          0x0000000000000000        0x0 /home/sean/.arduino15/packages/adafruit/tools/arm-none-eabi-gcc/9-2019q4/bin/../lib/gcc/arm-none-eabi/9.2.1/thumb/v7e-m+fp/hard/crtn.o
 .bss           0x0000000000000000        0x0 /home/sean/.arduino15/packages/adafruit/tools/arm-none-eabi-gcc/9-2019q4/bin/../lib/gcc/arm-none-eabi/9.2.1/thumb/v7e-m+fp/hard/crtn.o

Memory Configuration

Name             Origin             Length             Attributes
FLASH            0x0000000000026000 0x0000000000047000 xr
RAM              0x0000000020003600 0x000000000000ca00 xrw
*default*        0x0000000000000000 0xffffffffffffffff

Linker script and memory map

                0x0000000000000800                __StackSize = 0x800
                0x0000000020010000                PROVIDE (__StackTop = (ORIGIN (RAM) + LENGTH (RAM)))
                0x000000002000f800                PROVIDE (__StackLimit = (__StackTop - __StackSize))
                0x0000000020010000                PROVIDE (__stack = __StackTop)
                0x0000000000026000                __flash_arduino_start = ORIGIN (FLASH)
                0x000000000006d000                __flash_arduino_end = (ORIGIN (FLASH) + LENGTH (FLASH))

.text           0x0000000000026000     0x3eec
 *(.isr_vector)
 .isr_vector    0x0000000000026000      0x200 /home/sean/.cache/arduino/sketches/828FCB417685B578D8734FE54D6C0719/../../cores/adafruit_nrf52_feather52832_834d5f6a6bc090e19e7c4385762c2a0a/core.a(gcc_startup_nrf52.S.o)
                0x0000000000026000                __isr_vector
 *(.text*)
 .text.startup  0x0000000000026200       0x10 /home/sean/.arduino15/packages/adafruit/tools/arm-none-eabi-gcc/9-2019q4/bin/../lib/gcc/arm-none-eabi/9.2.1/thumb/v7e-m+fp/hard/crtfastmath.o
 .text          0x0000000000026210       0x40 /home/sean/.arduino15/packages/adafruit/tools/arm-none-eabi-gcc/9-2019q4/bin/../lib/gcc/arm-none-eabi/9.2.1/thumb/v7e-m+fp/hard/crtbegin.o
 .text          0x0000000000026250       0x74 /home/sean/.arduino15/packages/adafruit/tools/arm-none-eabi-gcc/9-2019q4/bin/../lib/gcc/arm-none-eabi/9.2.1/../../../../arm-none-eabi/lib/thumb/v7e-m+fp/hard/crt0.o
                0x0000000000026250                _mainCRTStartup
                0x0000000000026250                _start
 .text.led_init
                0x00000000000262c4        0xc /home/sean/.cache/arduino/sketches/828FCB417685B578D8734FE54D6C0719/sketch/led.c.o
                0x00000000000262c4                led_init
 .text.led_main
                0x00000000000262d0       0x48 /home/sean/.cache/arduino/sketches/828FCB417685B578D8734FE54D6C0719/sketch/led.c.o
                0x00000000000262d0                led_main
 .text.setup    0x0000000000026318        0x4 /home/sean/.cache/arduino/sketches/828FCB417685B578D8734FE54D6C0719/sketch/macro-blues.ino.cpp.o
                0x0000000000026318                setup
 .text.loop     0x000000000002631c        0x4 /home/sean/.cache/arduino/sketches/828FCB417685B578D8734FE54D6C0719/sketch/macro-blues.ino.cpp.o
                0x000000000002631c                loop
 .text._Z11initVariantv
                0x0000000000026320       0x24 /home/sean/.cache/arduino/sketches/828FCB417685B578D8734FE54D6C0719/core/variant.cpp.o
                0x0000000000026320                initVariant()
 .text          0x0000000000026344       0x54 /home/sean/.cache/arduino/sketches/828FCB417685B578D8734FE54D6C0719/../../cores/adafruit_nrf52_feather52832_834d5f6a6bc090e19e7c4385762c2a0a/core.a(gcc_startup_nrf52.S.o)
                0x0000000000026344                Reset_Handler
                0x0000000000026384                NMI_Handler
                0x0000000000026386                HardFault_Handler
                0x0000000000026388                MemoryManagement_Handler
                0x000000000002638a                BusFault_Handler
                0x000000000002638c                UsageFault_Handler
                0x0000000000026390                DebugMon_Handler
                0x0000000000026394                SysTick_Handler
                0x0000000000026396                TIMER2_IRQHandler
                0x0000000000026396                RTC0_IRQHandler
                0x0000000000026396                SWI0_EGU0_IRQHandler
                0x0000000000026396                SWI2_EGU2_IRQHandler
                0x0000000000026396                GPIOTE_IRQHandler
                0x0000000000026396                PWM1_IRQHandler
                0x0000000000026396                POWER_CLOCK_IRQHandler
                0x0000000000026396                RADIO_IRQHandler
                0x0000000000026396                PDM_IRQHandler
                0x0000000000026396                TEMP_IRQHandler
                0x0000000000026396                QDEC_IRQHandler
                0x0000000000026396                TIMER3_IRQHandler
                0x0000000000026396                FPU_IRQHandler
                0x0000000000026396                SPIM0_SPIS0_TWIM0_TWIS0_SPI0_TWI0_IRQHandler
                0x0000000000026396                TIMER4_IRQHandler
                0x0000000000026396                I2S_IRQHandler
                0x0000000000026396                SWI4_EGU4_IRQHandler
                0x0000000000026396                TIMER0_IRQHandler
                0x0000000000026396                TIMER1_IRQHandler
                0x0000000000026396                PWM2_IRQHandler
                0x0000000000026396                ECB_IRQHandler
                0x0000000000026396                SPIM1_SPIS1_TWIM1_TWIS1_SPI1_TWI1_IRQHandler
                0x0000000000026396                Default_Handler
                0x0000000000026396                SAADC_IRQHandler
                0x0000000000026396                CCM_AAR_IRQHandler
                0x0000000000026396                WDT_IRQHandler
                0x0000000000026396                SWI5_EGU5_IRQHandler
                0x0000000000026396                RNG_IRQHandler
                0x0000000000026396                RTC2_IRQHandler
                0x0000000000026396                PWM0_IRQHandler
                0x0000000000026396                SWI3_EGU3_IRQHandler
                0x0000000000026396                SWI1_EGU1_IRQHandler
                0x0000000000026396                SPIM2_SPIS2_SPI2_IRQHandler
                0x0000000000026396                NFCT_IRQHandler
                0x0000000000026396                MWU_IRQHandler
                0x0000000000026396                COMP_LPCOMP_IRQHandler
 .text._ZL9loop_taskPv
                0x0000000000026398       0x54 /home/sean/.cache/arduino/sketches/828FCB417685B578D8734FE54D6C0719/../../cores/adafruit_nrf52_feather52832_834d5f6a6bc090e19e7c4385762c2a0a/core.a(main.cpp.o)
 .text.startup.main
                0x00000000000263ec       0x5c /home/sean/.cache/arduino/sketches/828FCB417685B578D8734FE54D6C0719/../../cores/adafruit_nrf52_feather52832_834d5f6a6bc090e19e7c4385762c2a0a/core.a(main.cpp.o)
                0x00000000000263ec                main
 .text.SystemInit
                0x0000000000026448      0x388 /home/sean/.cache/arduino/sketches/828FCB417685B578D8734FE54D6C0719/../../cores/adafruit_nrf52_feather52832_834d5f6a6bc090e19e7c4385762c2a0a/core.a(system_nrf52.c.o)
                0x0000000000026448                SystemInit
 .text.yield    0x00000000000267d0       0x18 /home/sean/.cache/arduino/sketches/828FCB417685B578D8734FE54D6C0719/../../cores/adafruit_nrf52_feather52832_834d5f6a6bc090e19e7c4385762c2a0a/core.a(rtos.cpp.o)
                0x00000000000267d0                yield
 .text.vApplicationStackOverflowHook
                0x00000000000267e8        0x4 /home/sean/.cache/arduino/sketches/828FCB417685B578D8734FE54D6C0719/../../cores/adafruit_nrf52_feather52832_834d5f6a6bc090e19e7c4385762c2a0a/core.a(rtos.cpp.o)
                0x00000000000267e8                vApplicationStackOverflowHook
 .text.vApplicationMallocFailedHook
                0x00000000000267ec        0x4 /home/sean/.cache/arduino/sketches/828FCB417685B578D8734FE54D6C0719/../../cores/adafruit_nrf52_feather52832_834d5f6a6bc090e19e7c4385762c2a0a/core.a(rtos.cpp.o)
                0x00000000000267ec                vApplicationMallocFailedHook
 .text.vApplicationGetIdleTaskMemory
                0x00000000000267f0       0x1c /home/sean/.cache/arduino/sketches/828FCB417685B578D8734FE54D6C0719/../../cores/adafruit_nrf52_feather52832_834d5f6a6bc090e19e7c4385762c2a0a/core.a(rtos.cpp.o)
                0x00000000000267f0                vApplicationGetIdleTaskMemory
 .text.vApplicationGetTimerTaskMemory
                0x000000000002680c       0x20 /home/sean/.cache/arduino/sketches/828FCB417685B578D8734FE54D6C0719/../../cores/adafruit_nrf52_feather52832_834d5f6a6bc090e19e7c4385762c2a0a/core.a(rtos.cpp.o)
                0x000000000002680c                vApplicationGetTimerTaskMemory
 .text.adafruit_callback_task
                0x000000000002682c       0x84 /home/sean/.cache/arduino/sketches/828FCB417685B578D8734FE54D6C0719/../../cores/adafruit_nrf52_feather52832_834d5f6a6bc090e19e7c4385762c2a0a/core.a(AdaCallback.c.o)
                0x000000000002682c                adafruit_callback_task
 .text.ada_callback_init
                0x00000000000268b0       0x48 /home/sean/.cache/arduino/sketches/828FCB417685B578D8734FE54D6C0719/../../cores/adafruit_nrf52_feather52832_834d5f6a6bc090e19e7c4385762c2a0a/core.a(AdaCallback.c.o)
                0x00000000000268b0                ada_callback_init
 .text.init     0x00000000000268f8       0x74 /home/sean/.cache/arduino/sketches/828FCB417685B578D8734FE54D6C0719/../../cores/adafruit_nrf52_feather52832_834d5f6a6bc090e19e7c4385762c2a0a/core.a(wiring.c.o)
                0x00000000000268f8                init
 .text.pinMode  0x000000000002696c      0x130 /home/sean/.cache/arduino/sketches/828FCB417685B578D8734FE54D6C0719/../../cores/adafruit_nrf52_feather52832_834d5f6a6bc090e19e7c4385762c2a0a/core.a(wiring_digital.c.o)
                0x000000000002696c                pinMode
 .text.ledOff   0x0000000000026a9c       0x1c /home/sean/.cache/arduino/sketches/828FCB417685B578D8734FE54D6C0719/../../cores/adafruit_nrf52_feather52832_834d5f6a6bc090e19e7c4385762c2a0a/core.a(wiring_digital.c.o)
                0x0000000000026a9c                ledOff
 .text._ZN4UartcvbEv
                0x0000000000026ab8        0x8 /home/sean/.cache/arduino/sketches/828FCB417685B578D8734FE54D6C0719/../../cores/adafruit_nrf52_feather52832_834d5f6a6bc090e19e7c4385762c2a0a/core.a(Uart.cpp.o)
                0x0000000000026ab8                Uart::operator bool()
 .text._ZN4Uart3endEv
                0x0000000000026ac0       0x94 /home/sean/.cache/arduino/sketches/828FCB417685B578D8734FE54D6C0719/../../cores/adafruit_nrf52_feather52832_834d5f6a6bc090e19e7c4385762c2a0a/core.a(Uart.cpp.o)
                0x0000000000026ac0                Uart::end()
 .text._ZN4Uart9availableEv
                0x0000000000026b54        0x8 /home/sean/.cache/arduino/sketches/828FCB417685B578D8734FE54D6C0719/../../cores/adafruit_nrf52_feather52832_834d5f6a6bc090e19e7c4385762c2a0a/core.a(Uart.cpp.o)
                0x0000000000026b54                Uart::available()
 .text._ZN4Uart4peekEv
                0x0000000000026b5c        0x8 /home/sean/.cache/arduino/sketches/828FCB417685B578D8734FE54D6C0719/../../cores/adafruit_nrf52_feather52832_834d5f6a6bc090e19e7c4385762c2a0a/core.a(Uart.cpp.o)
                0x0000000000026b5c                Uart::peek()
 .text._ZN4Uart4readEv
                0x0000000000026b64        0x8 /home/sean/.cache/arduino/sketches/828FCB417685B578D8734FE54D6C0719/../../cores/adafruit_nrf52_feather52832_834d5f6a6bc090e19e7c4385762c2a0a/core.a(Uart.cpp.o)
                0x0000000000026b64                Uart::read()
 .text._ZN4Uart17availableForWriteEv
                0x0000000000026b6c       0x14 /home/sean/.cache/arduino/sketches/828FCB417685B578D8734FE54D6C0719/../../cores/adafruit_nrf52_feather52832_834d5f6a6bc090e19e7c4385762c2a0a/core.a(Uart.cpp.o)
                0x0000000000026b6c                Uart::availableForWrite()
 .text._ZN4Uart5flushEv
                0x0000000000026b80       0x2c /home/sean/.cache/arduino/sketches/828FCB417685B578D8734FE54D6C0719/../../cores/adafruit_nrf52_feather52832_834d5f6a6bc090e19e7c4385762c2a0a/core.a(Uart.cpp.o)
                0x0000000000026b80                Uart::flush()
 .text._ZN4Uart5writeEh
                0x0000000000026bac       0x48 /home/sean/.cache/arduino/sketches/828FCB417685B578D8734FE54D6C0719/../../cores/adafruit_nrf52_feather52832_834d5f6a6bc090e19e7c4385762c2a0a/core.a(Uart.cpp.o)
                0x0000000000026bac                Uart::write(unsigned char)
 .text._ZN4Uart5writeEPKhj
                0x0000000000026bf4       0x54 /home/sean/.cache/arduino/sketches/828FCB417685B578D8734FE54D6C0719/../../cores/adafruit_nrf52_feather52832_834d5f6a6bc090e19e7c4385762c2a0a/core.a(Uart.cpp.o)
                0x0000000000026bf4                Uart::write(unsigned char const*, unsigned int)
 .text._ZN4Uart5beginEm
                0x0000000000026c48      0x200 /home/sean/.cache/arduino/sketches/828FCB417685B578D8734FE54D6C0719/../../cores/adafruit_nrf52_feather52832_834d5f6a6bc090e19e7c4385762c2a0a/core.a(Uart.cpp.o)
                0x0000000000026c48                Uart::begin(unsigned long)
 .text._ZN4Uart5beginEmt
                0x0000000000026e48      0x1ec /home/sean/.cache/arduino/sketches/828FCB417685B578D8734FE54D6C0719/../../cores/adafruit_nrf52_feather52832_834d5f6a6bc090e19e7c4385762c2a0a/core.a(Uart.cpp.o)
                0x0000000000026e48                Uart::begin(unsigned long, unsigned short)
 .text._Z14serialEventRunv
                0x0000000000027034       0x20 /home/sean/.cache/arduino/sketches/828FCB417685B578D8734FE54D6C0719/../../cores/adafruit_nrf52_feather52832_834d5f6a6bc090e19e7c4385762c2a0a/core.a(Uart.cpp.o)
                0x0000000000027034                serialEventRun()
 .text.UARTE0_UART0_IRQHandler
                0x0000000000027054       0x4c /home/sean/.cache/arduino/sketches/828FCB417685B578D8734FE54D6C0719/../../cores/adafruit_nrf52_feather52832_834d5f6a6bc090e19e7c4385762c2a0a/core.a(Uart.cpp.o)
                0x0000000000027054                UARTE0_UART0_IRQHandler
 .text.startup._GLOBAL__sub_I__ZN4UartC2EP14NRF_UARTE_Type9IRQn_Typehh
                0x00000000000270a0       0x4c /home/sean/.cache/arduino/sketches/828FCB417685B578D8734FE54D6C0719/../../cores/adafruit_nrf52_feather52832_834d5f6a6bc090e19e7c4385762c2a0a/core.a(Uart.cpp.o)
 .text.__wrap_free
                0x00000000000270ec       0x2c /home/sean/.cache/arduino/sketches/828FCB417685B578D8734FE54D6C0719/../../cores/adafruit_nrf52_feather52832_834d5f6a6bc090e19e7c4385762c2a0a/core.a(heap_3.c.o)
                0x00000000000270ec                __wrap_free
 .text.pvPortMalloc
                0x0000000000027118       0x28 /home/sean/.cache/arduino/sketches/828FCB417685B578D8734FE54D6C0719/../../cores/adafruit_nrf52_feather52832_834d5f6a6bc090e19e7c4385762c2a0a/core.a(heap_3.c.o)
                0x0000000000027118                pvPortMalloc
 .text.vPortFree
                0x0000000000027140       0x1c /home/sean/.cache/arduino/sketches/828FCB417685B578D8734FE54D6C0719/../../cores/adafruit_nrf52_feather52832_834d5f6a6bc090e19e7c4385762c2a0a/core.a(heap_3.c.o)
                0x0000000000027140                vPortFree
 .text.xQueueGenericCreateStatic
                0x000000000002715c       0x60 /home/sean/.cache/arduino/sketches/828FCB417685B578D8734FE54D6C0719/../../cores/adafruit_nrf52_feather52832_834d5f6a6bc090e19e7c4385762c2a0a/core.a(queue.c.o)
                0x000000000002715c                xQueueGenericCreateStatic
 .text.xQueueGenericCreate
                0x00000000000271bc       0x84 /home/sean/.cache/arduino/sketches/828FCB417685B578D8734FE54D6C0719/../../cores/adafruit_nrf52_feather52832_834d5f6a6bc090e19e7c4385762c2a0a/core.a(queue.c.o)
                0x00000000000271bc                xQueueGenericCreate
 .text.xQueueGenericSend
                0x0000000000027240      0x360 /home/sean/.cache/arduino/sketches/828FCB417685B578D8734FE54D6C0719/../../cores/adafruit_nrf52_feather52832_834d5f6a6bc090e19e7c4385762c2a0a/core.a(queue.c.o)
                0x0000000000027240                xQueueGenericSend
 .text.xQueueGiveFromISR
                0x00000000000275a0       0x60 /home/sean/.cache/arduino/sketches/828FCB417685B578D8734FE54D6C0719/../../cores/adafruit_nrf52_feather52832_834d5f6a6bc090e19e7c4385762c2a0a/core.a(queue.c.o)
                0x00000000000275a0                xQueueGiveFromISR
 .text.xQueueReceive
                0x0000000000027600      0x2b8 /home/sean/.cache/arduino/sketches/828FCB417685B578D8734FE54D6C0719/../../cores/adafruit_nrf52_feather52832_834d5f6a6bc090e19e7c4385762c2a0a/core.a(queue.c.o)
                0x0000000000027600                xQueueReceive
 .text.xQueueSemaphoreTake
                0x00000000000278b8      0x2f8 /home/sean/.cache/arduino/sketches/828FCB417685B578D8734FE54D6C0719/../../cores/adafruit_nrf52_feather52832_834d5f6a6bc090e19e7c4385762c2a0a/core.a(queue.c.o)
                0x00000000000278b8                xQueueSemaphoreTake
 .text.uxQueueMessagesWaiting
                0x0000000000027bb0       0x18 /home/sean/.cache/arduino/sketches/828FCB417685B578D8734FE54D6C0719/../../cores/adafruit_nrf52_feather52832_834d5f6a6bc090e19e7c4385762c2a0a/core.a(queue.c.o)
                0x0000000000027bb0                uxQueueMessagesWaiting
 .text.vQueueDelete
                0x0000000000027bc8       0x48 /home/sean/.cache/arduino/sketches/828FCB417685B578D8734FE54D6C0719/../../cores/adafruit_nrf52_feather52832_834d5f6a6bc090e19e7c4385762c2a0a/core.a(queue.c.o)
                0x0000000000027bc8                vQueueDelete
 .text.vQueueAddToRegistry
                0x0000000000027c10       0x24 /home/sean/.cache/arduino/sketches/828FCB417685B578D8734FE54D6C0719/../../cores/adafruit_nrf52_feather52832_834d5f6a6bc090e19e7c4385762c2a0a/core.a(queue.c.o)
                0x0000000000027c10                vQueueAddToRegistry
 .text.vQueueWaitForMessageRestricted
                0x0000000000027c34       0xcc /home/sean/.cache/arduino/sketches/828FCB417685B578D8734FE54D6C0719/../../cores/adafruit_nrf52_feather52832_834d5f6a6bc090e19e7c4385762c2a0a/core.a(queue.c.o)
                0x0000000000027c34                vQueueWaitForMessageRestricted
 .text.prvAddNewTaskToReadyList
                0x0000000000027d00      0x124 /home/sean/.cache/arduino/sketches/828FCB417685B578D8734FE54D6C0719/../../cores/adafruit_nrf52_feather52832_834d5f6a6bc090e19e7c4385762c2a0a/core.a(tasks.c.o)
 .text.xTaskCreateStatic
                0x0000000000027e24       0xe0 /home/sean/.cache/arduino/sketches/828FCB417685B578D8734FE54D6C0719/../../cores/adafruit_nrf52_feather52832_834d5f6a6bc090e19e7c4385762c2a0a/core.a(tasks.c.o)
                0x0000000000027e24                xTaskCreateStatic
 .text.xTaskCreate
                0x0000000000027f04       0xf0 /home/sean/.cache/arduino/sketches/828FCB417685B578D8734FE54D6C0719/../../cores/adafruit_nrf52_feather52832_834d5f6a6bc090e19e7c4385762c2a0a/core.a(tasks.c.o)
                0x0000000000027f04                xTaskCreate
 .text.vTaskStartScheduler
                0x0000000000027ff4       0xcc /home/sean/.cache/arduino/sketches/828FCB417685B578D8734FE54D6C0719/../../cores/adafruit_nrf52_feather52832_834d5f6a6bc090e19e7c4385762c2a0a/core.a(tasks.c.o)
                0x0000000000027ff4                vTaskStartScheduler
 .text.vTaskSuspendAll
                0x00000000000280c0       0x10 /home/sean/.cache/arduino/sketches/828FCB417685B578D8734FE54D6C0719/../../cores/adafruit_nrf52_feather52832_834d5f6a6bc090e19e7c4385762c2a0a/core.a(tasks.c.o)
                0x00000000000280c0                vTaskSuspendAll
 .text.xTaskGetTickCount
                0x00000000000280d0        0xc /home/sean/.cache/arduino/sketches/828FCB417685B578D8734FE54D6C0719/../../cores/adafruit_nrf52_feather52832_834d5f6a6bc090e19e7c4385762c2a0a/core.a(tasks.c.o)
                0x00000000000280d0                xTaskGetTickCount
 .text.vTaskStepTick
                0x00000000000280dc       0x10 /home/sean/.cache/arduino/sketches/828FCB417685B578D8734FE54D6C0719/../../cores/adafruit_nrf52_feather52832_834d5f6a6bc090e19e7c4385762c2a0a/core.a(tasks.c.o)
                0x00000000000280dc                vTaskStepTick
 .text.xTaskIncrementTick
                0x00000000000280ec      0x134 /home/sean/.cache/arduino/sketches/828FCB417685B578D8734FE54D6C0719/../../cores/adafruit_nrf52_feather52832_834d5f6a6bc090e19e7c4385762c2a0a/core.a(tasks.c.o)
                0x00000000000280ec                xTaskIncrementTick
 .text.xTaskResumeAll
                0x0000000000028220      0x120 /home/sean/.cache/arduino/sketches/828FCB417685B578D8734FE54D6C0719/../../cores/adafruit_nrf52_feather52832_834d5f6a6bc090e19e7c4385762c2a0a/core.a(tasks.c.o)
                0x0000000000028220                xTaskResumeAll
 .text.prvIdleTask
                0x0000000000028340      0x118 /home/sean/.cache/arduino/sketches/828FCB417685B578D8734FE54D6C0719/../../cores/adafruit_nrf52_feather52832_834d5f6a6bc090e19e7c4385762c2a0a/core.a(tasks.c.o)
 .text.vTaskSwitchContext
                0x0000000000028458       0xbc /home/sean/.cache/arduino/sketches/828FCB417685B578D8734FE54D6C0719/../../cores/adafruit_nrf52_feather52832_834d5f6a6bc090e19e7c4385762c2a0a/core.a(tasks.c.o)
                0x0000000000028458                vTaskSwitchContext
 .text.vTaskPlaceOnEventList
                0x0000000000028514       0x78 /home/sean/.cache/arduino/sketches/828FCB417685B578D8734FE54D6C0719/../../cores/adafruit_nrf52_feather52832_834d5f6a6bc090e19e7c4385762c2a0a/core.a(tasks.c.o)
                0x0000000000028514                vTaskPlaceOnEventList
 .text.vTaskPlaceOnEventListRestricted
                0x000000000002858c       0x80 /home/sean/.cache/arduino/sketches/828FCB417685B578D8734FE54D6C0719/../../cores/adafruit_nrf52_feather52832_834d5f6a6bc090e19e7c4385762c2a0a/core.a(tasks.c.o)
                0x000000000002858c                vTaskPlaceOnEventListRestricted
 .text.xTaskRemoveFromEventList
                0x000000000002860c       0xa4 /home/sean/.cache/arduino/sketches/828FCB417685B578D8734FE54D6C0719/../../cores/adafruit_nrf52_feather52832_834d5f6a6bc090e19e7c4385762c2a0a/core.a(tasks.c.o)
                0x000000000002860c                xTaskRemoveFromEventList
 .text.vTaskInternalSetTimeOutState
                0x00000000000286b0       0x18 /home/sean/.cache/arduino/sketches/828FCB417685B578D8734FE54D6C0719/../../cores/adafruit_nrf52_feather52832_834d5f6a6bc090e19e7c4385762c2a0a/core.a(tasks.c.o)
                0x00000000000286b0                vTaskInternalSetTimeOutState
 .text.xTaskCheckForTimeOut
                0x00000000000286c8       0x68 /home/sean/.cache/arduino/sketches/828FCB417685B578D8734FE54D6C0719/../../cores/adafruit_nrf52_feather52832_834d5f6a6bc090e19e7c4385762c2a0a/core.a(tasks.c.o)
                0x00000000000286c8                xTaskCheckForTimeOut
 .text.vTaskMissedYield
                0x0000000000028730        0xc /home/sean/.cache/arduino/sketches/828FCB417685B578D8734FE54D6C0719/../../cores/adafruit_nrf52_feather52832_834d5f6a6bc090e19e7c4385762c2a0a/core.a(tasks.c.o)
                0x0000000000028730                vTaskMissedYield
 .text.eTaskConfirmSleepModeStatus
                0x000000000002873c       0x38 /home/sean/.cache/arduino/sketches/828FCB417685B578D8734FE54D6C0719/../../cores/adafruit_nrf52_feather52832_834d5f6a6bc090e19e7c4385762c2a0a/core.a(tasks.c.o)
                0x000000000002873c                eTaskConfirmSleepModeStatus
 .text.xTaskGetSchedulerState
                0x0000000000028774       0x20 /home/sean/.cache/arduino/sketches/828FCB417685B578D8734FE54D6C0719/../../cores/adafruit_nrf52_feather52832_834d5f6a6bc090e19e7c4385762c2a0a/core.a(tasks.c.o)
                0x0000000000028774                xTaskGetSchedulerState
 .text.xTaskPriorityInherit
                0x0000000000028794       0x8c /home/sean/.cache/arduino/sketches/828FCB417685B578D8734FE54D6C0719/../../cores/adafruit_nrf52_feather52832_834d5f6a6bc090e19e7c4385762c2a0a/core.a(tasks.c.o)
                0x0000000000028794                xTaskPriorityInherit
 .text.xTaskPriorityDisinherit
                0x0000000000028820       0x60 /home/sean/.cache/arduino/sketches/828FCB417685B578D8734FE54D6C0719/../../cores/adafruit_nrf52_feather52832_834d5f6a6bc090e19e7c4385762c2a0a/core.a(tasks.c.o)
                0x0000000000028820                xTaskPriorityDisinherit
 .text.vTaskPriorityDisinheritAfterTimeout
                0x0000000000028880       0x74 /home/sean/.cache/arduino/sketches/828FCB417685B578D8734FE54D6C0719/../../cores/adafruit_nrf52_feather52832_834d5f6a6bc090e19e7c4385762c2a0a/core.a(tasks.c.o)
                0x0000000000028880                vTaskPriorityDisinheritAfterTimeout
 .text.pvTaskIncrementMutexHeldCount
                0x00000000000288f4       0x18 /home/sean/.cache/arduino/sketches/828FCB417685B578D8734FE54D6C0719/../../cores/adafruit_nrf52_feather52832_834d5f6a6bc090e19e7c4385762c2a0a/core.a(tasks.c.o)
                0x00000000000288f4                pvTaskIncrementMutexHeldCount
 .text.prvSwitchTimerLists
                0x000000000002890c       0x88 /home/sean/.cache/arduino/sketches/828FCB417685B578D8734FE54D6C0719/../../cores/adafruit_nrf52_feather52832_834d5f6a6bc090e19e7c4385762c2a0a/core.a(timers.c.o)
 .text.prvTimerTask
                0x0000000000028994      0x240 /home/sean/.cache/arduino/sketches/828FCB417685B578D8734FE54D6C0719/../../cores/adafruit_nrf52_feather52832_834d5f6a6bc090e19e7c4385762c2a0a/core.a(timers.c.o)
 .text.xTimerCreateTimerTask
                0x0000000000028bd4       0xac /home/sean/.cache/arduino/sketches/828FCB417685B578D8734FE54D6C0719/../../cores/adafruit_nrf52_feather52832_834d5f6a6bc090e19e7c4385762c2a0a/core.a(timers.c.o)
                0x0000000000028bd4                xTimerCreateTimerTask
 .text.prvTaskExitError
                0x0000000000028c80        0x8 /home/sean/.cache/arduino/sketches/828FCB417685B578D8734FE54D6C0719/../../cores/adafruit_nrf52_feather52832_834d5f6a6bc090e19e7c4385762c2a0a/core.a(port_cmsis.c.o)
 .text.pxPortInitialiseStack
                0x0000000000028c88       0x2c /home/sean/.cache/arduino/sketches/828FCB417685B578D8734FE54D6C0719/../../cores/adafruit_nrf52_feather52832_834d5f6a6bc090e19e7c4385762c2a0a/core.a(port_cmsis.c.o)
                0x0000000000028c88                pxPortInitialiseStack
 .text.xPortStartScheduler
                0x0000000000028cb4       0x4c /home/sean/.cache/arduino/sketches/828FCB417685B578D8734FE54D6C0719/../../cores/adafruit_nrf52_feather52832_834d5f6a6bc090e19e7c4385762c2a0a/core.a(port_cmsis.c.o)
                0x0000000000028cb4                xPortStartScheduler
 .text.vPortEnterCritical
                0x0000000000028d00       0x14 /home/sean/.cache/arduino/sketches/828FCB417685B578D8734FE54D6C0719/../../cores/adafruit_nrf52_feather52832_834d5f6a6bc090e19e7c4385762c2a0a/core.a(port_cmsis.c.o)
                0x0000000000028d00                vPortEnterCritical
 .text.vPortExitCritical
                0x0000000000028d14       0x14 /home/sean/.cache/arduino/sketches/828FCB417685B578D8734FE54D6C0719/../../cores/adafruit_nrf52_feather52832_834d5f6a6bc090e19e7c4385762c2a0a/core.a(port_cmsis.c.o)
                0x0000000000028d14                vPortExitCritical
 .text.sd_app_evt_wait
                0x0000000000028d28        0x4 /home/sean/.cache/arduino/sketches/828FCB417685B578D8734FE54D6C0719/../../cores/adafruit_nrf52_feather52832_834d5f6a6bc090e19e7c4385762c2a0a/core.a(port_cmsis_systick.c.o)
 .text.sd_softdevice_is_enabled
                0x0000000000028d2c        0x4 /home/sean/.cache/arduino/sketches/828FCB417685B578D8734FE54D6C0719/../../cores/adafruit_nrf52_feather52832_834d5f6a6bc090e19e7c4385762c2a0a/core.a(port_cmsis_systick.c.o)
 .text.RTC1_IRQHandler
                0x0000000000028d30       0x88 /home/sean/.cache/arduino/sketches/828FCB417685B578D8734FE54D6C0719/../../cores/adafruit_nrf52_feather52832_834d5f6a6bc090e19e7c4385762c2a0a/core.a(port_cmsis_systick.c.o)
                0x0000000000028d30                RTC1_IRQHandler
 .text.vPortSetupTimerInterrupt
                0x0000000000028db8       0x3c /home/sean/.cache/arduino/sketches/828FCB417685B578D8734FE54D6C0719/../../cores/adafruit_nrf52_feather52832_834d5f6a6bc090e19e7c4385762c2a0a/core.a(port_cmsis_systick.c.o)
                0x0000000000028db8                vPortSetupTimerInterrupt
 .text.vPortSuppressTicksAndSleep
                0x0000000000028df4      0x1c0 /home/sean/.cache/arduino/sketches/828FCB417685B578D8734FE54D6C0719/../../cores/adafruit_nrf52_feather52832_834d5f6a6bc090e19e7c4385762c2a0a/core.a(port_cmsis_systick.c.o)
                0x0000000000028df4                vPortSuppressTicksAndSleep
 .text.vPortStartFirstTask
                0x0000000000028fb4       0x24 /home/sean/.cache/arduino/sketches/828FCB417685B578D8734FE54D6C0719/../../cores/adafruit_nrf52_feather52832_834d5f6a6bc090e19e7c4385762c2a0a/core.a(port.c.o)
                0x0000000000028fb4                vPortStartFirstTask
 .text.SVC_Handler
                0x0000000000028fd8       0x20 /home/sean/.cache/arduino/sketches/828FCB417685B578D8734FE54D6C0719/../../cores/adafruit_nrf52_feather52832_834d5f6a6bc090e19e7c4385762c2a0a/core.a(port.c.o)
                0x0000000000028fd8                SVC_Handler
 .text.PendSV_Handler
                0x0000000000028ff8       0x60 /home/sean/.cache/arduino/sketches/828FCB417685B578D8734FE54D6C0719/../../cores/adafruit_nrf52_feather52832_834d5f6a6bc090e19e7c4385762c2a0a/core.a(port.c.o)
                0x0000000000028ff8                PendSV_Handler
 .text.__empty  0x0000000000029058        0x4 /home/sean/.cache/arduino/sketches/828FCB417685B578D8734FE54D6C0719/../../cores/adafruit_nrf52_feather52832_834d5f6a6bc090e19e7c4385762c2a0a/core.a(hooks.c.o)
                0x0000000000029058                vApplicationIdleHook
 .text._ZN10RingBufferC2Ev
                0x000000000002905c       0x18 /home/sean/.cache/arduino/sketches/828FCB417685B578D8734FE54D6C0719/../../cores/adafruit_nrf52_feather52832_834d5f6a6bc090e19e7c4385762c2a0a/core.a(RingBuffer.cpp.o)
                0x000000000002905c                RingBuffer::RingBuffer()
                0x000000000002905c                RingBuffer::RingBuffer()
 .text._ZN10RingBuffer10store_charEh
                0x0000000000029074       0x1c /home/sean/.cache/arduino/sketches/828FCB417685B578D8734FE54D6C0719/../../cores/adafruit_nrf52_feather52832_834d5f6a6bc090e19e7c4385762c2a0a/core.a(RingBuffer.cpp.o)
                0x0000000000029074                RingBuffer::store_char(unsigned char)
 .text._ZN10RingBuffer5clearEv
                0x0000000000029090        0x8 /home/sean/.cache/arduino/sketches/828FCB417685B578D8734FE54D6C0719/../../cores/adafruit_nrf52_feather52832_834d5f6a6bc090e19e7c4385762c2a0a/core.a(RingBuffer.cpp.o)
                0x0000000000029090                RingBuffer::clear()
 .text._ZN10RingBuffer9read_charEv
                0x0000000000029098       0x1c /home/sean/.cache/arduino/sketches/828FCB417685B578D8734FE54D6C0719/../../cores/adafruit_nrf52_feather52832_834d5f6a6bc090e19e7c4385762c2a0a/core.a(RingBuffer.cpp.o)
                0x0000000000029098                RingBuffer::read_char()
 .text._ZN10RingBuffer9availableEv
                0x00000000000290b4        0xc /home/sean/.cache/arduino/sketches/828FCB417685B578D8734FE54D6C0719/../../cores/adafruit_nrf52_feather52832_834d5f6a6bc090e19e7c4385762c2a0a/core.a(RingBuffer.cpp.o)
                0x00000000000290b4                RingBuffer::available()
 .text._ZN10RingBuffer4peekEv
                0x00000000000290c0       0x10 /home/sean/.cache/arduino/sketches/828FCB417685B578D8734FE54D6C0719/../../cores/adafruit_nrf52_feather52832_834d5f6a6bc090e19e7c4385762c2a0a/core.a(RingBuffer.cpp.o)
                0x00000000000290c0                RingBuffer::peek()
 .text.vListInitialise
                0x00000000000290d0       0x18 /home/sean/.cache/arduino/sketches/828FCB417685B578D8734FE54D6C0719/../../cores/adafruit_nrf52_feather52832_834d5f6a6bc090e19e7c4385762c2a0a/core.a(list.c.o)
                0x00000000000290d0                vListInitialise
 .text.vListInitialiseItem
                0x00000000000290e8        0x8 /home/sean/.cache/arduino/sketches/828FCB417685B578D8734FE54D6C0719/../../cores/adafruit_nrf52_feather52832_834d5f6a6bc090e19e7c4385762c2a0a/core.a(list.c.o)
                0x00000000000290e8                vListInitialiseItem
 .text.vListInsertEnd
                0x00000000000290f0       0x20 /home/sean/.cache/arduino/sketches/828FCB417685B578D8734FE54D6C0719/../../cores/adafruit_nrf52_feather52832_834d5f6a6bc090e19e7c4385762c2a0a/core.a(list.c.o)
                0x00000000000290f0                vListInsertEnd
 .text.vListInsert
                0x0000000000029110       0x30 /home/sean/.cache/arduino/sketches/828FCB417685B578D8734FE54D6C0719/../../cores/adafruit_nrf52_feather52832_834d5f6a6bc090e19e7c4385762c2a0a/core.a(list.c.o)
                0x0000000000029110                vListInsert
 .text.uxListRemove
                0x0000000000029140       0x28 /home/sean/.cache/arduino/sketches/828FCB417685B578D8734FE54D6C0719/../../cores/adafruit_nrf52_feather52832_834d5f6a6bc090e19e7c4385762c2a0a/core.a(list.c.o)
                0x0000000000029140                uxListRemove
 .text.exit     0x0000000000029168       0x20 /home/sean/.arduino15/packages/adafruit/tools/arm-none-eabi-gcc/9-2019q4/bin/../lib/gcc/arm-none-eabi/9.2.1/../../../../arm-none-eabi/lib/thumb/v7e-m+fp/hard/libc.a(lib_a-exit.o)
                0x0000000000029168                exit
 .text.__libc_init_array
                0x0000000000029188       0x48 /home/sean/.arduino15/packages/adafruit/tools/arm-none-eabi-gcc/9-2019q4/bin/../lib/gcc/arm-none-eabi/9.2.1/../../../../arm-none-eabi/lib/thumb/v7e-m+fp/hard/libc.a(lib_a-init.o)
                0x0000000000029188                __libc_init_array
 .text.malloc   0x00000000000291d0       0x10 /home/sean/.arduino15/packages/adafruit/tools/arm-none-eabi-gcc/9-2019q4/bin/../lib/gcc/arm-none-eabi/9.2.1/../../../../arm-none-eabi/lib/thumb/v7e-m+fp/hard/libc.a(lib_a-malloc.o)
                0x00000000000291d0                malloc
 .text.free     0x00000000000291e0       0x10 /home/sean/.arduino15/packages/adafruit/tools/arm-none-eabi-gcc/9-2019q4/bin/../lib/gcc/arm-none-eabi/9.2.1/../../../../arm-none-eabi/lib/thumb/v7e-m+fp/hard/libc.a(lib_a-malloc.o)
                0x00000000000291e0                free
 .text._malloc_r
                0x00000000000291f0      0x574 /home/sean/.arduino15/packages/adafruit/tools/arm-none-eabi-gcc/9-2019q4/bin/../lib/gcc/arm-none-eabi/9.2.1/../../../../arm-none-eabi/lib/thumb/v7e-m+fp/hard/libc.a(lib_a-mallocr.o)
                0x00000000000291f0                _malloc_r
 .text          0x0000000000029764      0x134 /home/sean/.arduino15/packages/adafruit/tools/arm-none-eabi-gcc/9-2019q4/bin/../lib/gcc/arm-none-eabi/9.2.1/../../../../arm-none-eabi/lib/thumb/v7e-m+fp/hard/libc.a(lib_a-memcpy.o)
                0x0000000000029764                memcpy
 .text.memset   0x0000000000029898       0xa0 /home/sean/.arduino15/packages/adafruit/tools/arm-none-eabi-gcc/9-2019q4/bin/../lib/gcc/arm-none-eabi/9.2.1/../../../../arm-none-eabi/lib/thumb/v7e-m+fp/hard/libc.a(lib_a-memset.o)
                0x0000000000029898                memset
 .text.__malloc_lock
                0x0000000000029938        0xc /home/sean/.arduino15/packages/adafruit/tools/arm-none-eabi-gcc/9-2019q4/bin/../lib/gcc/arm-none-eabi/9.2.1/../../../../arm-none-eabi/lib/thumb/v7e-m+fp/hard/libc.a(lib_a-mlock.o)
                0x0000000000029938                __malloc_lock
 .text.__malloc_unlock
                0x0000000000029944        0xc /home/sean/.arduino15/packages/adafruit/tools/arm-none-eabi-gcc/9-2019q4/bin/../lib/gcc/arm-none-eabi/9.2.1/../../../../arm-none-eabi/lib/thumb/v7e-m+fp/hard/libc.a(lib_a-mlock.o)
                0x0000000000029944                __malloc_unlock
 .text._sbrk_r  0x0000000000029950       0x24 /home/sean/.arduino15/packages/adafruit/tools/arm-none-eabi-gcc/9-2019q4/bin/../lib/gcc/arm-none-eabi/9.2.1/../../../../arm-none-eabi/lib/thumb/v7e-m+fp/hard/libc.a(lib_a-sbrkr.o)
                0x0000000000029950                _sbrk_r
 .text.startup.register_fini
                0x0000000000029974       0x14 /home/sean/.arduino15/packages/adafruit/tools/arm-none-eabi-gcc/9-2019q4/bin/../lib/gcc/arm-none-eabi/9.2.1/../../../../arm-none-eabi/lib/thumb/v7e-m+fp/hard/libc.a(lib_a-__call_atexit.o)
 .text.__call_exitprocs
                0x0000000000029988       0xcc /home/sean/.arduino15/packages/adafruit/tools/arm-none-eabi-gcc/9-2019q4/bin/../lib/gcc/arm-none-eabi/9.2.1/../../../../arm-none-eabi/lib/thumb/v7e-m+fp/hard/libc.a(lib_a-__call_atexit.o)
                0x0000000000029988                __call_exitprocs
 .text.atexit   0x0000000000029a54        0xc /home/sean/.arduino15/packages/adafruit/tools/arm-none-eabi-gcc/9-2019q4/bin/../lib/gcc/arm-none-eabi/9.2.1/../../../../arm-none-eabi/lib/thumb/v7e-m+fp/hard/libc.a(lib_a-atexit.o)
                0x0000000000029a54                atexit
 .text.__libc_fini_array
                0x0000000000029a60       0x2c /home/sean/.arduino15/packages/adafruit/tools/arm-none-eabi-gcc/9-2019q4/bin/../lib/gcc/arm-none-eabi/9.2.1/../../../../arm-none-eabi/lib/thumb/v7e-m+fp/hard/libc.a(lib_a-fini.o)
                0x0000000000029a60                __libc_fini_array
 .text._malloc_trim_r
                0x0000000000029a8c       0xa0 /home/sean/.arduino15/packages/adafruit/tools/arm-none-eabi-gcc/9-2019q4/bin/../lib/gcc/arm-none-eabi/9.2.1/../../../../arm-none-eabi/lib/thumb/v7e-m+fp/hard/libc.a(lib_a-freer.o)
                0x0000000000029a8c                _malloc_trim_r
 .text._free_r  0x0000000000029b2c      0x208 /home/sean/.arduino15/packages/adafruit/tools/arm-none-eabi-gcc/9-2019q4/bin/../lib/gcc/arm-none-eabi/9.2.1/../../../../arm-none-eabi/lib/thumb/v7e-m+fp/hard/libc.a(lib_a-freer.o)
                0x0000000000029b2c                _free_r
 .text.__retarget_lock_acquire_recursive
                0x0000000000029d34        0x4 /home/sean/.arduino15/packages/adafruit/tools/arm-none-eabi-gcc/9-2019q4/bin/../lib/gcc/arm-none-eabi/9.2.1/../../../../arm-none-eabi/lib/thumb/v7e-m+fp/hard/libc.a(lib_a-lock.o)
                0x0000000000029d34                __retarget_lock_acquire_recursive
 .text.__retarget_lock_release_recursive
                0x0000000000029d38        0x4 /home/sean/.arduino15/packages/adafruit/tools/arm-none-eabi-gcc/9-2019q4/bin/../lib/gcc/arm-none-eabi/9.2.1/../../../../arm-none-eabi/lib/thumb/v7e-m+fp/hard/libc.a(lib_a-lock.o)
                0x0000000000029d38                __retarget_lock_release_recursive
 .text.__register_exitproc
                0x0000000000029d3c       0x8c /home/sean/.arduino15/packages/adafruit/tools/arm-none-eabi-gcc/9-2019q4/bin/../lib/gcc/arm-none-eabi/9.2.1/../../../../arm-none-eabi/lib/thumb/v7e-m+fp/hard/libc.a(lib_a-__atexit.o)
                0x0000000000029d3c                __register_exitproc
 .text._sbrk    0x0000000000029dc8       0x1c /home/sean/.arduino15/packages/adafruit/tools/arm-none-eabi-gcc/9-2019q4/bin/../lib/gcc/arm-none-eabi/9.2.1/../../../../arm-none-eabi/lib/thumb/v7e-m+fp/hard/libnosys.a(sbrk.o)
                0x0000000000029dc8                _sbrk
 .text._exit    0x0000000000029de4        0x4 /home/sean/.arduino15/packages/adafruit/tools/arm-none-eabi-gcc/9-2019q4/bin/../lib/gcc/arm-none-eabi/9.2.1/../../../../arm-none-eabi/lib/thumb/v7e-m+fp/hard/libnosys.a(_exit.o)
                0x0000000000029de4                _exit
 *(.init)
 .init          0x0000000000029de8        0x4 /home/sean/.arduino15/packages/adafruit/tools/arm-none-eabi-gcc/9-2019q4/bin/../lib/gcc/arm-none-eabi/9.2.1/thumb/v7e-m+fp/hard/crti.o
                0x0000000000029de8                _init
 .init          0x0000000000029dec        0x8 /home/sean/.arduino15/packages/adafruit/tools/arm-none-eabi-gcc/9-2019q4/bin/../lib/gcc/arm-none-eabi/9.2.1/thumb/v7e-m+fp/hard/crtn.o
 *(.fini)
 .fini          0x0000000000029df4        0x4 /home/sean/.arduino15/packages/adafruit/tools/arm-none-eabi-gcc/9-2019q4/bin/../lib/gcc/arm-none-eabi/9.2.1/thumb/v7e-m+fp/hard/crti.o
                0x0000000000029df4                _fini
 .fini          0x0000000000029df8        0x8 /home/sean/.arduino15/packages/adafruit/tools/arm-none-eabi-gcc/9-2019q4/bin/../lib/gcc/arm-none-eabi/9.2.1/thumb/v7e-m+fp/hard/crtn.o
 *crtbegin.o(.ctors)
 *crtbegin?.o(.ctors)
 *(EXCLUDE_FILE(*crtend.o *crtend?.o) .ctors)
 *(SORT_BY_NAME(.ctors.*))
 *(.ctors)
 *crtbegin.o(.dtors)
 *crtbegin?.o(.dtors)
 *(EXCLUDE_FILE(*crtend.o *crtend?.o) .dtors)
 *(SORT_BY_NAME(.dtors.*))
 *(.dtors)
 *(.rodata*)
 .rodata.g_ADigitalPinMap
                0x0000000000029e00       0x80 /home/sean/.cache/arduino/sketches/828FCB417685B578D8734FE54D6C0719/core/variant.cpp.o
                0x0000000000029e00                g_ADigitalPinMap
 .rodata.main.str1.4
                0x0000000000029e80        0x5 /home/sean/.cache/arduino/sketches/828FCB417685B578D8734FE54D6C0719/../../cores/adafruit_nrf52_feather52832_834d5f6a6bc090e19e7c4385762c2a0a/core.a(main.cpp.o)
 *fill*         0x0000000000029e85        0x3 
 .rodata.CSWTCH.14
                0x0000000000029e88        0x4 /home/sean/.cache/arduino/sketches/828FCB417685B578D8734FE54D6C0719/../../cores/adafruit_nrf52_feather52832_834d5f6a6bc090e19e7c4385762c2a0a/core.a(system_nrf52.c.o)
 .rodata.CSWTCH.18
                0x0000000000029e8c        0x4 /home/sean/.cache/arduino/sketches/828FCB417685B578D8734FE54D6C0719/../../cores/adafruit_nrf52_feather52832_834d5f6a6bc090e19e7c4385762c2a0a/core.a(system_nrf52.c.o)
 .rodata.CSWTCH.4
                0x0000000000029e90        0x4 /home/sean/.cache/arduino/sketches/828FCB417685B578D8734FE54D6C0719/../../cores/adafruit_nrf52_feather52832_834d5f6a6bc090e19e7c4385762c2a0a/core.a(system_nrf52.c.o)
 .rodata.ada_callback_init.str1.4
                0x0000000000029e94        0x9 /home/sean/.cache/arduino/sketches/828FCB417685B578D8734FE54D6C0719/../../cores/adafruit_nrf52_feather52832_834d5f6a6bc090e19e7c4385762c2a0a/core.a(AdaCallback.c.o)
 *fill*         0x0000000000029e9d        0x3 
 .rodata._ZTV4Uart
                0x0000000000029ea0       0x34 /home/sean/.cache/arduino/sketches/828FCB417685B578D8734FE54D6C0719/../../cores/adafruit_nrf52_feather52832_834d5f6a6bc090e19e7c4385762c2a0a/core.a(Uart.cpp.o)
                0x0000000000029ea0                vtable for Uart
 .rodata.xTimerCreateTimerTask.str1.4
                0x0000000000029ed4       0x10 /home/sean/.cache/arduino/sketches/828FCB417685B578D8734FE54D6C0719/../../cores/adafruit_nrf52_feather52832_834d5f6a6bc090e19e7c4385762c2a0a/core.a(timers.c.o)
 .rodata._global_impure_ptr
                0x0000000000029ee4        0x4 /home/sean/.arduino15/packages/adafruit/tools/arm-none-eabi-gcc/9-2019q4/bin/../lib/gcc/arm-none-eabi/9.2.1/../../../../arm-none-eabi/lib/thumb/v7e-m+fp/hard/libc.a(lib_a-impure.o)
                0x0000000000029ee4                _global_impure_ptr
 *(.eh_frame*)
 .eh_frame      0x0000000000029ee8        0x0 /home/sean/.arduino15/packages/adafruit/tools/arm-none-eabi-gcc/9-2019q4/bin/../lib/gcc/arm-none-eabi/9.2.1/thumb/v7e-m+fp/hard/crtbegin.o
 .eh_frame      0x0000000000029ee8        0x4 /home/sean/.arduino15/packages/adafruit/tools/arm-none-eabi-gcc/9-2019q4/bin/../lib/gcc/arm-none-eabi/9.2.1/thumb/v7e-m+fp/hard/crtend.o

.glue_7         0x0000000000029eec        0x0
 .glue_7        0x0000000000029eec        0x0 linker stubs

.glue_7t        0x0000000000029eec        0x0
 .glue_7t       0x0000000000029eec        0x0 linker stubs

.vfp11_veneer   0x0000000000029eec        0x0
 .vfp11_veneer  0x0000000000029eec        0x0 linker stubs

.v4_bx          0x0000000000029eec        0x0
 .v4_bx         0x0000000000029eec        0x0 linker stubs

.iplt           0x0000000000029eec        0x0
 .iplt          0x0000000000029eec        0x0 /home/sean/.arduino15/packages/adafruit/tools/arm-none-eabi-gcc/9-2019q4/bin/../lib/gcc/arm-none-eabi/9.2.1/thumb/v7e-m+fp/hard/crtfastmath.o

.ARM.extab
 *(.ARM.extab* .gnu.linkonce.armextab.*)
                0x0000000000029eec                __exidx_start = .

.ARM.exidx      0x0000000000029eec        0x8
 *(.ARM.exidx* .gnu.linkonce.armexidx.*)
 .ARM.exidx     0x0000000000029eec        0x8 /home/sean/.arduino15/packages/adafruit/tools/arm-none-eabi-gcc/9-2019q4/bin/../lib/gcc/arm-none-eabi/9.2.1/../../../../arm-none-eabi/lib/thumb/v7e-m+fp/hard/crt0.o
                0x0000000000029ef4                __exidx_end = .
                0x0000000000029ef4                __etext = .

.rel.dyn        0x0000000000029ef4        0x0
 .rel.iplt      0x0000000000029ef4        0x0 /home/sean/.arduino15/packages/adafruit/tools/arm-none-eabi-gcc/9-2019q4/bin/../lib/gcc/arm-none-eabi/9.2.1/thumb/v7e-m+fp/hard/crtfastmath.o

.data           0x0000000020003600      0x858 load address 0x0000000000029ef4
                0x0000000020003600                __data_start__ = .
 *(vtable)
 *(.data*)
 .data.SystemCoreClock
                0x0000000020003600        0x4 /home/sean/.cache/arduino/sketches/828FCB417685B578D8734FE54D6C0719/../../cores/adafruit_nrf52_feather52832_834d5f6a6bc090e19e7c4385762c2a0a/core.a(system_nrf52.c.o)
                0x0000000020003600                SystemCoreClock
 .data._impure_ptr
                0x0000000020003604        0x4 /home/sean/.arduino15/packages/adafruit/tools/arm-none-eabi-gcc/9-2019q4/bin/../lib/gcc/arm-none-eabi/9.2.1/../../../../arm-none-eabi/lib/thumb/v7e-m+fp/hard/libc.a(lib_a-impure.o)
                0x0000000020003604                _impure_ptr
 .data.impure_data
                0x0000000020003608      0x428 /home/sean/.arduino15/packages/adafruit/tools/arm-none-eabi-gcc/9-2019q4/bin/../lib/gcc/arm-none-eabi/9.2.1/../../../../arm-none-eabi/lib/thumb/v7e-m+fp/hard/libc.a(lib_a-impure.o)
 .data.__malloc_av_
                0x0000000020003a30      0x408 /home/sean/.arduino15/packages/adafruit/tools/arm-none-eabi-gcc/9-2019q4/bin/../lib/gcc/arm-none-eabi/9.2.1/../../../../arm-none-eabi/lib/thumb/v7e-m+fp/hard/libc.a(lib_a-mallocr.o)
                0x0000000020003a30                __malloc_av_
 .data.__malloc_sbrk_base
                0x0000000020003e38        0x4 /home/sean/.arduino15/packages/adafruit/tools/arm-none-eabi-gcc/9-2019q4/bin/../lib/gcc/arm-none-eabi/9.2.1/../../../../arm-none-eabi/lib/thumb/v7e-m+fp/hard/libc.a(lib_a-mallocr.o)
                0x0000000020003e38                __malloc_sbrk_base
 .data.__malloc_trim_threshold
                0x0000000020003e3c        0x4 /home/sean/.arduino15/packages/adafruit/tools/arm-none-eabi-gcc/9-2019q4/bin/../lib/gcc/arm-none-eabi/9.2.1/../../../../arm-none-eabi/lib/thumb/v7e-m+fp/hard/libc.a(lib_a-mallocr.o)
                0x0000000020003e3c                __malloc_trim_threshold
 .data.__atexit_recursive_mutex
                0x0000000020003e40        0x4 /home/sean/.arduino15/packages/adafruit/tools/arm-none-eabi-gcc/9-2019q4/bin/../lib/gcc/arm-none-eabi/9.2.1/../../../../arm-none-eabi/lib/thumb/v7e-m+fp/hard/libc.a(lib_a-__call_atexit.o)
                0x0000000020003e40                __atexit_recursive_mutex
                0x0000000020003e44                . = ALIGN (0x4)
                0x0000000020003e44                PROVIDE (__preinit_array_start = .)
 *(.preinit_array)
                0x0000000020003e44                PROVIDE (__preinit_array_end = .)
                0x0000000020003e44                . = ALIGN (0x4)
                0x0000000020003e44                PROVIDE (__init_array_start = .)
 *(SORT_BY_NAME(.init_array.*))
 .init_array.00000
                0x0000000020003e44        0x4 /home/sean/.arduino15/packages/adafruit/tools/arm-none-eabi-gcc/9-2019q4/bin/../lib/gcc/arm-none-eabi/9.2.1/../../../../arm-none-eabi/lib/thumb/v7e-m+fp/hard/libc.a(lib_a-__call_atexit.o)
 *(.init_array)
 .init_array    0x0000000020003e48        0x4 /home/sean/.arduino15/packages/adafruit/tools/arm-none-eabi-gcc/9-2019q4/bin/../lib/gcc/arm-none-eabi/9.2.1/thumb/v7e-m+fp/hard/crtfastmath.o
 .init_array    0x0000000020003e4c        0x4 /home/sean/.arduino15/packages/adafruit/tools/arm-none-eabi-gcc/9-2019q4/bin/../lib/gcc/arm-none-eabi/9.2.1/thumb/v7e-m+fp/hard/crtbegin.o
 .init_array    0x0000000020003e50        0x4 /home/sean/.cache/arduino/sketches/828FCB417685B578D8734FE54D6C0719/../../cores/adafruit_nrf52_feather52832_834d5f6a6bc090e19e7c4385762c2a0a/core.a(Uart.cpp.o)
                0x0000000020003e54                PROVIDE (__init_array_end = .)
                0x0000000020003e54                . = ALIGN (0x4)
                0x0000000020003e54                PROVIDE (__fini_array_start = .)
 *(SORT_BY_NAME(.fini_array.*))
 *(.fini_array)
 .fini_array    0x0000000020003e54        0x4 /home/sean/.arduino15/packages/adafruit/tools/arm-none-eabi-gcc/9-2019q4/bin/../lib/gcc/arm-none-eabi/9.2.1/thumb/v7e-m+fp/hard/crtbegin.o
                0x0000000020003e58                PROVIDE (__fini_array_end = .)
 *(.jcr*)
                0x0000000020003e58                . = ALIGN (0x4)
                0x0000000020003e58                __data_end__ = .
LOAD /home/sean/.arduino15/packages/adafruit/tools/arm-none-eabi-gcc/9-2019q4/bin/../lib/gcc/arm-none-eabi/9.2.1/thumb/v7e-m+fp/hard/crtfastmath.o
LOAD /home/sean/.arduino15/packages/adafruit/tools/arm-none-eabi-gcc/9-2019q4/bin/../lib/gcc/arm-none-eabi/9.2.1/thumb/v7e-m+fp/hard/crti.o
LOAD /home/sean/.arduino15/packages/adafruit/tools/arm-none-eabi-gcc/9-2019q4/bin/../lib/gcc/arm-none-eabi/9.2.1/thumb/v7e-m+fp/hard/crtbegin.o
LOAD /home/sean/.arduino15/packages/adafruit/tools/arm-none-eabi-gcc/9-2019q4/bin/../lib/gcc/arm-none-eabi/9.2.1/../../../../arm-none-eabi/lib/thumb/v7e-m+fp/hard/crt0.o
LOAD /home/sean/.cache/arduino/sketches/828FCB417685B578D8734FE54D6C0719/sketch/keyswitch.c.o
LOAD /home/sean/.cache/arduino/sketches/828FCB417685B578D8734FE54D6C0719/sketch/led.c.o
LOAD /home/sean/.cache/arduino/sketches/828FCB417685B578D8734FE54D6C0719/sketch/macro-blues.ino.cpp.o
LOAD /home/sean/.cache/arduino/sketches/828FCB417685B578D8734FE54D6C0719/core/variant.cpp.o
START GROUP
LOAD /home/sean/.arduino15/packages/adafruit/tools/CMSIS/5.7.0/CMSIS/DSP/Lib/GCC//libarm_cortexM4lf_math.a
LOAD /home/sean/.arduino15/packages/adafruit/tools/arm-none-eabi-gcc/9-2019q4/bin/../lib/gcc/arm-none-eabi/9.2.1/../../../../arm-none-eabi/lib/thumb/v7e-m+fp/hard/libm.a
LOAD /home/sean/.cache/arduino/sketches/828FCB417685B578D8734FE54D6C0719/../../cores/adafruit_nrf52_feather52832_834d5f6a6bc090e19e7c4385762c2a0a/core.a
END GROUP
START GROUP
LOAD /home/sean/.arduino15/packages/adafruit/tools/arm-none-eabi-gcc/9-2019q4/bin/../lib/gcc/arm-none-eabi/9.2.1/thumb/v7e-m+fp/hard/libgcc.a
LOAD /home/sean/.arduino15/packages/adafruit/tools/arm-none-eabi-gcc/9-2019q4/bin/../lib/gcc/arm-none-eabi/9.2.1/../../../../arm-none-eabi/lib/thumb/v7e-m+fp/hard/libc.a
END GROUP
START GROUP
LOAD /home/sean/.arduino15/packages/adafruit/tools/arm-none-eabi-gcc/9-2019q4/bin/../lib/gcc/arm-none-eabi/9.2.1/thumb/v7e-m+fp/hard/libgcc.a
LOAD /home/sean/.arduino15/packages/adafruit/tools/arm-none-eabi-gcc/9-2019q4/bin/../lib/gcc/arm-none-eabi/9.2.1/../../../../arm-none-eabi/lib/thumb/v7e-m+fp/hard/libc.a
LOAD /home/sean/.arduino15/packages/adafruit/tools/arm-none-eabi-gcc/9-2019q4/bin/../lib/gcc/arm-none-eabi/9.2.1/../../../../arm-none-eabi/lib/thumb/v7e-m+fp/hard/libnosys.a
END GROUP
LOAD /home/sean/.arduino15/packages/adafruit/tools/arm-none-eabi-gcc/9-2019q4/bin/../lib/gcc/arm-none-eabi/9.2.1/thumb/v7e-m+fp/hard/crtend.o
LOAD /home/sean/.arduino15/packages/adafruit/tools/arm-none-eabi-gcc/9-2019q4/bin/../lib/gcc/arm-none-eabi/9.2.1/thumb/v7e-m+fp/hard/crtn.o
START GROUP
LOAD /home/sean/.arduino15/packages/adafruit/tools/arm-none-eabi-gcc/9-2019q4/bin/../lib/gcc/arm-none-eabi/9.2.1/thumb/v7e-m+fp/hard/libgcc.a
LOAD /home/sean/.arduino15/packages/adafruit/tools/arm-none-eabi-gcc/9-2019q4/bin/../lib/gcc/arm-none-eabi/9.2.1/../../../../arm-none-eabi/lib/thumb/v7e-m+fp/hard/libc.a
LOAD /home/sean/.arduino15/packages/adafruit/tools/arm-none-eabi-gcc/9-2019q4/bin/../lib/gcc/arm-none-eabi/9.2.1/../../../../arm-none-eabi/lib/thumb/v7e-m+fp/hard/libnosys.a
END GROUP

.igot.plt       0x0000000020003e58        0x0 load address 0x000000000002a74c
 .igot.plt      0x0000000020003e58        0x0 /home/sean/.arduino15/packages/adafruit/tools/arm-none-eabi-gcc/9-2019q4/bin/../lib/gcc/arm-none-eabi/9.2.1/thumb/v7e-m+fp/hard/crtfastmath.o
                0x0000000020003e58                . = ALIGN (0x4)

.svc_data       0x0000000020003e58        0x0
                [!provide]                        PROVIDE (__start_svc_data = .)
 *(.svc_data)
                [!provide]                        PROVIDE (__stop_svc_data = .)

.fs_data        0x0000000020003e58        0x0
                [!provide]                        PROVIDE (__start_fs_data = .)
 *(.fs_data)
                [!provide]                        PROVIDE (__stop_fs_data = .)

.bss            0x0000000020003e58      0xb24 load address 0x000000000002a74c
                0x0000000020003e58                . = ALIGN (0x4)
                0x0000000020003e58                __bss_start__ = .
 *(.bss*)
 .bss           0x0000000020003e58       0x1c /home/sean/.arduino15/packages/adafruit/tools/arm-none-eabi-gcc/9-2019q4/bin/../lib/gcc/arm-none-eabi/9.2.1/thumb/v7e-m+fp/hard/crtbegin.o
 .bss._ZL11_loopHandle
                0x0000000020003e74        0x4 /home/sean/.cache/arduino/sketches/828FCB417685B578D8734FE54D6C0719/../../cores/adafruit_nrf52_feather52832_834d5f6a6bc090e19e7c4385762c2a0a/core.a(main.cpp.o)
 .bss._ZZ29vApplicationGetIdleTaskMemoryE12xIdleTaskTCB
                0x0000000020003e78       0x54 /home/sean/.cache/arduino/sketches/828FCB417685B578D8734FE54D6C0719/../../cores/adafruit_nrf52_feather52832_834d5f6a6bc090e19e7c4385762c2a0a/core.a(rtos.cpp.o)
 .bss._ZZ29vApplicationGetIdleTaskMemoryE15uxIdleTaskStack
                0x0000000020003ecc      0x190 /home/sean/.cache/arduino/sketches/828FCB417685B578D8734FE54D6C0719/../../cores/adafruit_nrf52_feather52832_834d5f6a6bc090e19e7c4385762c2a0a/core.a(rtos.cpp.o)
 .bss._ZZ30vApplicationGetTimerTaskMemoryE13xTimerTaskTCB
                0x000000002000405c       0x54 /home/sean/.cache/arduino/sketches/828FCB417685B578D8734FE54D6C0719/../../cores/adafruit_nrf52_feather52832_834d5f6a6bc090e19e7c4385762c2a0a/core.a(rtos.cpp.o)
 .bss._ZZ30vApplicationGetTimerTaskMemoryE16uxTimerTaskStack
                0x00000000200040b0      0x400 /home/sean/.cache/arduino/sketches/828FCB417685B578D8734FE54D6C0719/../../cores/adafruit_nrf52_feather52832_834d5f6a6bc090e19e7c4385762c2a0a/core.a(rtos.cpp.o)
 .bss._cb_qdepth
                0x00000000200044b0        0x4 /home/sean/.cache/arduino/sketches/828FCB417685B578D8734FE54D6C0719/../../cores/adafruit_nrf52_feather52832_834d5f6a6bc090e19e7c4385762c2a0a/core.a(AdaCallback.c.o)
 .bss._cb_queue
                0x00000000200044b4        0x4 /home/sean/.cache/arduino/sketches/828FCB417685B578D8734FE54D6C0719/../../cores/adafruit_nrf52_feather52832_834d5f6a6bc090e19e7c4385762c2a0a/core.a(AdaCallback.c.o)
 .bss._cb_task  0x00000000200044b8        0x4 /home/sean/.cache/arduino/sketches/828FCB417685B578D8734FE54D6C0719/../../cores/adafruit_nrf52_feather52832_834d5f6a6bc090e19e7c4385762c2a0a/core.a(AdaCallback.c.o)
 .bss._reset_reason
                0x00000000200044bc        0x4 /home/sean/.cache/arduino/sketches/828FCB417685B578D8734FE54D6C0719/../../cores/adafruit_nrf52_feather52832_834d5f6a6bc090e19e7c4385762c2a0a/core.a(wiring.c.o)
 .bss.bootloaderVersion
                0x00000000200044c0        0x4 /home/sean/.cache/arduino/sketches/828FCB417685B578D8734FE54D6C0719/../../cores/adafruit_nrf52_feather52832_834d5f6a6bc090e19e7c4385762c2a0a/core.a(wiring.c.o)
                0x00000000200044c0                bootloaderVersion
 .bss.Serial    0x00000000200044c4       0xa8 /home/sean/.cache/arduino/sketches/828FCB417685B578D8734FE54D6C0719/../../cores/adafruit_nrf52_feather52832_834d5f6a6bc090e19e7c4385762c2a0a/core.a(Uart.cpp.o)
                0x00000000200044c4                Serial
 .bss.pxCurrentTCB
                0x000000002000456c        0x4 /home/sean/.cache/arduino/sketches/828FCB417685B578D8734FE54D6C0719/../../cores/adafruit_nrf52_feather52832_834d5f6a6bc090e19e7c4385762c2a0a/core.a(tasks.c.o)
                0x000000002000456c                pxCurrentTCB
 .bss.pxDelayedTaskList
                0x0000000020004570        0x4 /home/sean/.cache/arduino/sketches/828FCB417685B578D8734FE54D6C0719/../../cores/adafruit_nrf52_feather52832_834d5f6a6bc090e19e7c4385762c2a0a/core.a(tasks.c.o)
 .bss.pxOverflowDelayedTaskList
                0x0000000020004574        0x4 /home/sean/.cache/arduino/sketches/828FCB417685B578D8734FE54D6C0719/../../cores/adafruit_nrf52_feather52832_834d5f6a6bc090e19e7c4385762c2a0a/core.a(tasks.c.o)
 .bss.pxReadyTasksLists
                0x0000000020004578       0x64 /home/sean/.cache/arduino/sketches/828FCB417685B578D8734FE54D6C0719/../../cores/adafruit_nrf52_feather52832_834d5f6a6bc090e19e7c4385762c2a0a/core.a(tasks.c.o)
 .bss.uxCurrentNumberOfTasks
                0x00000000200045dc        0x4 /home/sean/.cache/arduino/sketches/828FCB417685B578D8734FE54D6C0719/../../cores/adafruit_nrf52_feather52832_834d5f6a6bc090e19e7c4385762c2a0a/core.a(tasks.c.o)
 .bss.uxDeletedTasksWaitingCleanUp
                0x00000000200045e0        0x4 /home/sean/.cache/arduino/sketches/828FCB417685B578D8734FE54D6C0719/../../cores/adafruit_nrf52_feather52832_834d5f6a6bc090e19e7c4385762c2a0a/core.a(tasks.c.o)
 .bss.uxPendedTicks
                0x00000000200045e4        0x4 /home/sean/.cache/arduino/sketches/828FCB417685B578D8734FE54D6C0719/../../cores/adafruit_nrf52_feather52832_834d5f6a6bc090e19e7c4385762c2a0a/core.a(tasks.c.o)
 .bss.uxSchedulerSuspended
                0x00000000200045e8        0x4 /home/sean/.cache/arduino/sketches/828FCB417685B578D8734FE54D6C0719/../../cores/adafruit_nrf52_feather52832_834d5f6a6bc090e19e7c4385762c2a0a/core.a(tasks.c.o)
 .bss.uxTaskNumber
                0x00000000200045ec        0x4 /home/sean/.cache/arduino/sketches/828FCB417685B578D8734FE54D6C0719/../../cores/adafruit_nrf52_feather52832_834d5f6a6bc090e19e7c4385762c2a0a/core.a(tasks.c.o)
 .bss.uxTopReadyPriority
                0x00000000200045f0        0x4 /home/sean/.cache/arduino/sketches/828FCB417685B578D8734FE54D6C0719/../../cores/adafruit_nrf52_feather52832_834d5f6a6bc090e19e7c4385762c2a0a/core.a(tasks.c.o)
 .bss.xDelayedTaskList1
                0x00000000200045f4       0x14 /home/sean/.cache/arduino/sketches/828FCB417685B578D8734FE54D6C0719/../../cores/adafruit_nrf52_feather52832_834d5f6a6bc090e19e7c4385762c2a0a/core.a(tasks.c.o)
 .bss.xDelayedTaskList2
                0x0000000020004608       0x14 /home/sean/.cache/arduino/sketches/828FCB417685B578D8734FE54D6C0719/../../cores/adafruit_nrf52_feather52832_834d5f6a6bc090e19e7c4385762c2a0a/core.a(tasks.c.o)
 .bss.xIdleTaskHandle
                0x000000002000461c        0x4 /home/sean/.cache/arduino/sketches/828FCB417685B578D8734FE54D6C0719/../../cores/adafruit_nrf52_feather52832_834d5f6a6bc090e19e7c4385762c2a0a/core.a(tasks.c.o)
 .bss.xNextTaskUnblockTime
                0x0000000020004620        0x4 /home/sean/.cache/arduino/sketches/828FCB417685B578D8734FE54D6C0719/../../cores/adafruit_nrf52_feather52832_834d5f6a6bc090e19e7c4385762c2a0a/core.a(tasks.c.o)
 .bss.xNumOfOverflows
                0x0000000020004624        0x4 /home/sean/.cache/arduino/sketches/828FCB417685B578D8734FE54D6C0719/../../cores/adafruit_nrf52_feather52832_834d5f6a6bc090e19e7c4385762c2a0a/core.a(tasks.c.o)
 .bss.xPendingReadyList
                0x0000000020004628       0x14 /home/sean/.cache/arduino/sketches/828FCB417685B578D8734FE54D6C0719/../../cores/adafruit_nrf52_feather52832_834d5f6a6bc090e19e7c4385762c2a0a/core.a(tasks.c.o)
 .bss.xSchedulerRunning
                0x000000002000463c        0x4 /home/sean/.cache/arduino/sketches/828FCB417685B578D8734FE54D6C0719/../../cores/adafruit_nrf52_feather52832_834d5f6a6bc090e19e7c4385762c2a0a/core.a(tasks.c.o)
 .bss.xSuspendedTaskList
                0x0000000020004640       0x14 /home/sean/.cache/arduino/sketches/828FCB417685B578D8734FE54D6C0719/../../cores/adafruit_nrf52_feather52832_834d5f6a6bc090e19e7c4385762c2a0a/core.a(tasks.c.o)
 .bss.xTasksWaitingTermination
                0x0000000020004654       0x14 /home/sean/.cache/arduino/sketches/828FCB417685B578D8734FE54D6C0719/../../cores/adafruit_nrf52_feather52832_834d5f6a6bc090e19e7c4385762c2a0a/core.a(tasks.c.o)
 .bss.xTickCount
                0x0000000020004668        0x4 /home/sean/.cache/arduino/sketches/828FCB417685B578D8734FE54D6C0719/../../cores/adafruit_nrf52_feather52832_834d5f6a6bc090e19e7c4385762c2a0a/core.a(tasks.c.o)
 .bss.xYieldPending
                0x000000002000466c        0x4 /home/sean/.cache/arduino/sketches/828FCB417685B578D8734FE54D6C0719/../../cores/adafruit_nrf52_feather52832_834d5f6a6bc090e19e7c4385762c2a0a/core.a(tasks.c.o)
 .bss.pxCurrentTimerList
                0x0000000020004670        0x4 /home/sean/.cache/arduino/sketches/828FCB417685B578D8734FE54D6C0719/../../cores/adafruit_nrf52_feather52832_834d5f6a6bc090e19e7c4385762c2a0a/core.a(timers.c.o)
 .bss.pxOverflowTimerList
                0x0000000020004674        0x4 /home/sean/.cache/arduino/sketches/828FCB417685B578D8734FE54D6C0719/../../cores/adafruit_nrf52_feather52832_834d5f6a6bc090e19e7c4385762c2a0a/core.a(timers.c.o)
 .bss.ucStaticTimerQueueStorage.9336
                0x0000000020004678      0x200 /home/sean/.cache/arduino/sketches/828FCB417685B578D8734FE54D6C0719/../../cores/adafruit_nrf52_feather52832_834d5f6a6bc090e19e7c4385762c2a0a/core.a(timers.c.o)
 .bss.xActiveTimerList1
                0x0000000020004878       0x14 /home/sean/.cache/arduino/sketches/828FCB417685B578D8734FE54D6C0719/../../cores/adafruit_nrf52_feather52832_834d5f6a6bc090e19e7c4385762c2a0a/core.a(timers.c.o)
 .bss.xActiveTimerList2
                0x000000002000488c       0x14 /home/sean/.cache/arduino/sketches/828FCB417685B578D8734FE54D6C0719/../../cores/adafruit_nrf52_feather52832_834d5f6a6bc090e19e7c4385762c2a0a/core.a(timers.c.o)
 .bss.xLastTime.9289
                0x00000000200048a0        0x4 /home/sean/.cache/arduino/sketches/828FCB417685B578D8734FE54D6C0719/../../cores/adafruit_nrf52_feather52832_834d5f6a6bc090e19e7c4385762c2a0a/core.a(timers.c.o)
 .bss.xStaticTimerQueue.9335
                0x00000000200048a4       0x50 /home/sean/.cache/arduino/sketches/828FCB417685B578D8734FE54D6C0719/../../cores/adafruit_nrf52_feather52832_834d5f6a6bc090e19e7c4385762c2a0a/core.a(timers.c.o)
 .bss.xTimerQueue
                0x00000000200048f4        0x4 /home/sean/.cache/arduino/sketches/828FCB417685B578D8734FE54D6C0719/../../cores/adafruit_nrf52_feather52832_834d5f6a6bc090e19e7c4385762c2a0a/core.a(timers.c.o)
 .bss.xTimerTaskHandle
                0x00000000200048f8        0x4 /home/sean/.cache/arduino/sketches/828FCB417685B578D8734FE54D6C0719/../../cores/adafruit_nrf52_feather52832_834d5f6a6bc090e19e7c4385762c2a0a/core.a(timers.c.o)
 .bss.uxCriticalNesting
                0x00000000200048fc        0x4 /home/sean/.cache/arduino/sketches/828FCB417685B578D8734FE54D6C0719/../../cores/adafruit_nrf52_feather52832_834d5f6a6bc090e19e7c4385762c2a0a/core.a(port_cmsis.c.o)
 .bss.__malloc_current_mallinfo
                0x0000000020004900       0x28 /home/sean/.arduino15/packages/adafruit/tools/arm-none-eabi-gcc/9-2019q4/bin/../lib/gcc/arm-none-eabi/9.2.1/../../../../arm-none-eabi/lib/thumb/v7e-m+fp/hard/libc.a(lib_a-mallocr.o)
                0x0000000020004900                __malloc_current_mallinfo
 .bss.__malloc_max_sbrked_mem
                0x0000000020004928        0x4 /home/sean/.arduino15/packages/adafruit/tools/arm-none-eabi-gcc/9-2019q4/bin/../lib/gcc/arm-none-eabi/9.2.1/../../../../arm-none-eabi/lib/thumb/v7e-m+fp/hard/libc.a(lib_a-mallocr.o)
                0x0000000020004928                __malloc_max_sbrked_mem
 .bss.__malloc_max_total_mem
                0x000000002000492c        0x4 /home/sean/.arduino15/packages/adafruit/tools/arm-none-eabi-gcc/9-2019q4/bin/../lib/gcc/arm-none-eabi/9.2.1/../../../../arm-none-eabi/lib/thumb/v7e-m+fp/hard/libc.a(lib_a-mallocr.o)
                0x000000002000492c                __malloc_max_total_mem
 .bss.__malloc_top_pad
                0x0000000020004930        0x4 /home/sean/.arduino15/packages/adafruit/tools/arm-none-eabi-gcc/9-2019q4/bin/../lib/gcc/arm-none-eabi/9.2.1/../../../../arm-none-eabi/lib/thumb/v7e-m+fp/hard/libc.a(lib_a-mallocr.o)
                0x0000000020004930                __malloc_top_pad
 .bss.heap_end.5507
                0x0000000020004934        0x4 /home/sean/.arduino15/packages/adafruit/tools/arm-none-eabi-gcc/9-2019q4/bin/../lib/gcc/arm-none-eabi/9.2.1/../../../../arm-none-eabi/lib/thumb/v7e-m+fp/hard/libnosys.a(sbrk.o)
 *(COMMON)
 COMMON         0x0000000020004938        0xc /home/sean/.cache/arduino/sketches/828FCB417685B578D8734FE54D6C0719/../../cores/adafruit_nrf52_feather52832_834d5f6a6bc090e19e7c4385762c2a0a/core.a(wiring.c.o)
                0x0000000020004938                nrf_nvic_state
 COMMON         0x0000000020004944       0x10 /home/sean/.cache/arduino/sketches/828FCB417685B578D8734FE54D6C0719/../../cores/adafruit_nrf52_feather52832_834d5f6a6bc090e19e7c4385762c2a0a/core.a(queue.c.o)
                0x0000000020004944                xQueueRegistry
 COMMON         0x0000000020004954       0x21 /home/sean/.arduino15/packages/adafruit/tools/arm-none-eabi-gcc/9-2019q4/bin/../lib/gcc/arm-none-eabi/9.2.1/../../../../arm-none-eabi/lib/thumb/v7e-m+fp/hard/libc.a(lib_a-lock.o)
                0x0000000020004954                __lock___atexit_recursive_mutex
                0x0000000020004958                __lock___arc4random_mutex
                0x000000002000495c                __lock___env_recursive_mutex
                0x0000000020004960                __lock___sinit_recursive_mutex
                0x0000000020004964                __lock___malloc_recursive_mutex
                0x0000000020004968                __lock___at_quick_exit_mutex
                0x000000002000496c                __lock___dd_hash_mutex
                0x0000000020004970                __lock___tz_mutex
                0x0000000020004974                __lock___sfp_recursive_mutex
 *fill*         0x0000000020004975        0x3 
 COMMON         0x0000000020004978        0x4 /home/sean/.arduino15/packages/adafruit/tools/arm-none-eabi-gcc/9-2019q4/bin/../lib/gcc/arm-none-eabi/9.2.1/../../../../arm-none-eabi/lib/thumb/v7e-m+fp/hard/libc.a(lib_a-reent.o)
                0x0000000020004978                errno
                0x000000002000497c                . = ALIGN (0x4)
                0x000000002000497c                __bss_end__ = .

.heap           0x000000002000497c     0xae84 load address 0x000000000002b270
                0x000000002000497c                __HeapBase = .
                0x000000002000497c                __end__ = .
                0x000000002000497c                PROVIDE (end = .)
 *(.heap*)
                0x000000002000f800                . = ALIGN (__StackLimit)
 *fill*         0x000000002000497c     0xae84 
                0x000000002000f800                __HeapLimit = .
                0x0000000000000001                ASSERT ((__StackLimit >= __HeapLimit), region RAM overflowed with stack)
                0x0000000000000001                ASSERT ((__StackLimit >= __bss_end__), region RAM overflowed with stack)
OUTPUT(/home/sean/.cache/arduino/sketches/828FCB417685B578D8734FE54D6C0719/macro-blues.ino.elf elf32-littlearm)

.ARM.attributes
                0x0000000000000000       0x32
 .ARM.attributes
                0x0000000000000000       0x34 /home/sean/.arduino15/packages/adafruit/tools/arm-none-eabi-gcc/9-2019q4/bin/../lib/gcc/arm-none-eabi/9.2.1/thumb/v7e-m+fp/hard/crtfastmath.o
 .ARM.attributes
                0x0000000000000034       0x1e /home/sean/.arduino15/packages/adafruit/tools/arm-none-eabi-gcc/9-2019q4/bin/../lib/gcc/arm-none-eabi/9.2.1/thumb/v7e-m+fp/hard/crti.o
 .ARM.attributes
                0x0000000000000052       0x34 /home/sean/.arduino15/packages/adafruit/tools/arm-none-eabi-gcc/9-2019q4/bin/../lib/gcc/arm-none-eabi/9.2.1/thumb/v7e-m+fp/hard/crtbegin.o
 .ARM.attributes
                0x0000000000000086       0x1c /home/sean/.arduino15/packages/adafruit/tools/arm-none-eabi-gcc/9-2019q4/bin/../lib/gcc/arm-none-eabi/9.2.1/../../../../arm-none-eabi/lib/thumb/v7e-m+fp/hard/crt0.o
 .ARM.attributes
                0x00000000000000a2       0x30 /home/sean/.cache/arduino/sketches/828FCB417685B578D8734FE54D6C0719/sketch/led.c.o
 .ARM.attributes
                0x00000000000000d2       0x30 /home/sean/.cache/arduino/sketches/828FCB417685B578D8734FE54D6C0719/sketch/macro-blues.ino.cpp.o
 .ARM.attributes
                0x0000000000000102       0x30 /home/sean/.cache/arduino/sketches/828FCB417685B578D8734FE54D6C0719/core/variant.cpp.o
 .ARM.attributes
                0x0000000000000132       0x20 /home/sean/.cache/arduino/sketches/828FCB417685B578D8734FE54D6C0719/../../cores/adafruit_nrf52_feather52832_834d5f6a6bc090e19e7c4385762c2a0a/core.a(gcc_startup_nrf52.S.o)
 .ARM.attributes
                0x0000000000000152       0x30 /home/sean/.cache/arduino/sketches/828FCB417685B578D8734FE54D6C0719/../../cores/adafruit_nrf52_feather52832_834d5f6a6bc090e19e7c4385762c2a0a/core.a(main.cpp.o)
 .ARM.attributes
                0x0000000000000182       0x30 /home/sean/.cache/arduino/sketches/828FCB417685B578D8734FE54D6C0719/../../cores/adafruit_nrf52_feather52832_834d5f6a6bc090e19e7c4385762c2a0a/core.a(system_nrf52.c.o)
 .ARM.attributes
                0x00000000000001b2       0x30 /home/sean/.cache/arduino/sketches/828FCB417685B578D8734FE54D6C0719/../../cores/adafruit_nrf52_feather52832_834d5f6a6bc090e19e7c4385762c2a0a/core.a(rtos.cpp.o)
 .ARM.attributes
                0x00000000000001e2       0x30 /home/sean/.cache/arduino/sketches/828FCB417685B578D8734FE54D6C0719/../../cores/adafruit_nrf52_feather52832_834d5f6a6bc090e19e7c4385762c2a0a/core.a(AdaCallback.c.o)
 .ARM.attributes
                0x0000000000000212       0x30 /home/sean/.cache/arduino/sketches/828FCB417685B578D8734FE54D6C0719/../../cores/adafruit_nrf52_feather52832_834d5f6a6bc090e19e7c4385762c2a0a/core.a(wiring.c.o)
 .ARM.attributes
                0x0000000000000242       0x30 /home/sean/.cache/arduino/sketches/828FCB417685B578D8734FE54D6C0719/../../cores/adafruit_nrf52_feather52832_834d5f6a6bc090e19e7c4385762c2a0a/core.a(wiring_digital.c.o)
 .ARM.attributes
                0x0000000000000272       0x30 /home/sean/.cache/arduino/sketches/828FCB417685B578D8734FE54D6C0719/../../cores/adafruit_nrf52_feather52832_834d5f6a6bc090e19e7c4385762c2a0a/core.a(Uart.cpp.o)
 .ARM.attributes
                0x00000000000002a2       0x30 /home/sean/.cache/arduino/sketches/828FCB417685B578D8734FE54D6C0719/../../cores/adafruit_nrf52_feather52832_834d5f6a6bc090e19e7c4385762c2a0a/core.a(heap_3.c.o)
 .ARM.attributes
                0x00000000000002d2       0x30 /home/sean/.cache/arduino/sketches/828FCB417685B578D8734FE54D6C0719/../../cores/adafruit_nrf52_feather52832_834d5f6a6bc090e19e7c4385762c2a0a/core.a(queue.c.o)
 .ARM.attributes
                0x0000000000000302       0x30 /home/sean/.cache/arduino/sketches/828FCB417685B578D8734FE54D6C0719/../../cores/adafruit_nrf52_feather52832_834d5f6a6bc090e19e7c4385762c2a0a/core.a(tasks.c.o)
 .ARM.attributes
                0x0000000000000332       0x30 /home/sean/.cache/arduino/sketches/828FCB417685B578D8734FE54D6C0719/../../cores/adafruit_nrf52_feather52832_834d5f6a6bc090e19e7c4385762c2a0a/core.a(timers.c.o)
 .ARM.attributes
                0x0000000000000362       0x30 /home/sean/.cache/arduino/sketches/828FCB417685B578D8734FE54D6C0719/../../cores/adafruit_nrf52_feather52832_834d5f6a6bc090e19e7c4385762c2a0a/core.a(port_cmsis.c.o)
 .ARM.attributes
                0x0000000000000392       0x30 /home/sean/.cache/arduino/sketches/828FCB417685B578D8734FE54D6C0719/../../cores/adafruit_nrf52_feather52832_834d5f6a6bc090e19e7c4385762c2a0a/core.a(port_cmsis_systick.c.o)
 .ARM.attributes
                0x00000000000003c2       0x30 /home/sean/.cache/arduino/sketches/828FCB417685B578D8734FE54D6C0719/../../cores/adafruit_nrf52_feather52832_834d5f6a6bc090e19e7c4385762c2a0a/core.a(port.c.o)
 .ARM.attributes
                0x00000000000003f2       0x30 /home/sean/.cache/arduino/sketches/828FCB417685B578D8734FE54D6C0719/../../cores/adafruit_nrf52_feather52832_834d5f6a6bc090e19e7c4385762c2a0a/core.a(hooks.c.o)
 .ARM.attributes
                0x0000000000000422       0x30 /home/sean/.cache/arduino/sketches/828FCB417685B578D8734FE54D6C0719/../../cores/adafruit_nrf52_feather52832_834d5f6a6bc090e19e7c4385762c2a0a/core.a(RingBuffer.cpp.o)
 .ARM.attributes
                0x0000000000000452       0x30 /home/sean/.cache/arduino/sketches/828FCB417685B578D8734FE54D6C0719/../../cores/adafruit_nrf52_feather52832_834d5f6a6bc090e19e7c4385762c2a0a/core.a(list.c.o)
 .ARM.attributes
                0x0000000000000482       0x34 /home/sean/.arduino15/packages/adafruit/tools/arm-none-eabi-gcc/9-2019q4/bin/../lib/gcc/arm-none-eabi/9.2.1/../../../../arm-none-eabi/lib/thumb/v7e-m+fp/hard/libc.a(lib_a-exit.o)
 .ARM.attributes
                0x00000000000004b6       0x32 /home/sean/.arduino15/packages/adafruit/tools/arm-none-eabi-gcc/9-2019q4/bin/../lib/gcc/arm-none-eabi/9.2.1/../../../../arm-none-eabi/lib/thumb/v7e-m+fp/hard/libc.a(lib_a-impure.o)
 .ARM.attributes
                0x00000000000004e8       0x34 /home/sean/.arduino15/packages/adafruit/tools/arm-none-eabi-gcc/9-2019q4/bin/../lib/gcc/arm-none-eabi/9.2.1/../../../../arm-none-eabi/lib/thumb/v7e-m+fp/hard/libc.a(lib_a-init.o)
 .ARM.attributes
                0x000000000000051c       0x34 /home/sean/.arduino15/packages/adafruit/tools/arm-none-eabi-gcc/9-2019q4/bin/../lib/gcc/arm-none-eabi/9.2.1/../../../../arm-none-eabi/lib/thumb/v7e-m+fp/hard/libc.a(lib_a-malloc.o)
 .ARM.attributes
                0x0000000000000550       0x34 /home/sean/.arduino15/packages/adafruit/tools/arm-none-eabi-gcc/9-2019q4/bin/../lib/gcc/arm-none-eabi/9.2.1/../../../../arm-none-eabi/lib/thumb/v7e-m+fp/hard/libc.a(lib_a-mallocr.o)
 .ARM.attributes
                0x0000000000000584       0x1c /home/sean/.arduino15/packages/adafruit/tools/arm-none-eabi-gcc/9-2019q4/bin/../lib/gcc/arm-none-eabi/9.2.1/../../../../arm-none-eabi/lib/thumb/v7e-m+fp/hard/libc.a(lib_a-memcpy.o)
 .ARM.attributes
                0x00000000000005a0       0x34 /home/sean/.arduino15/packages/adafruit/tools/arm-none-eabi-gcc/9-2019q4/bin/../lib/gcc/arm-none-eabi/9.2.1/../../../../arm-none-eabi/lib/thumb/v7e-m+fp/hard/libc.a(lib_a-memset.o)
 .ARM.attributes
                0x00000000000005d4       0x34 /home/sean/.arduino15/packages/adafruit/tools/arm-none-eabi-gcc/9-2019q4/bin/../lib/gcc/arm-none-eabi/9.2.1/../../../../arm-none-eabi/lib/thumb/v7e-m+fp/hard/libc.a(lib_a-mlock.o)
 .ARM.attributes
                0x0000000000000608       0x34 /home/sean/.arduino15/packages/adafruit/tools/arm-none-eabi-gcc/9-2019q4/bin/../lib/gcc/arm-none-eabi/9.2.1/../../../../arm-none-eabi/lib/thumb/v7e-m+fp/hard/libc.a(lib_a-sbrkr.o)
 .ARM.attributes
                0x000000000000063c       0x34 /home/sean/.arduino15/packages/adafruit/tools/arm-none-eabi-gcc/9-2019q4/bin/../lib/gcc/arm-none-eabi/9.2.1/../../../../arm-none-eabi/lib/thumb/v7e-m+fp/hard/libc.a(lib_a-__call_atexit.o)
 .ARM.attributes
                0x0000000000000670       0x34 /home/sean/.arduino15/packages/adafruit/tools/arm-none-eabi-gcc/9-2019q4/bin/../lib/gcc/arm-none-eabi/9.2.1/../../../../arm-none-eabi/lib/thumb/v7e-m+fp/hard/libc.a(lib_a-atexit.o)
 .ARM.attributes
                0x00000000000006a4       0x34 /home/sean/.arduino15/packages/adafruit/tools/arm-none-eabi-gcc/9-2019q4/bin/../lib/gcc/arm-none-eabi/9.2.1/../../../../arm-none-eabi/lib/thumb/v7e-m+fp/hard/libc.a(lib_a-fini.o)
 .ARM.attributes
                0x00000000000006d8       0x34 /home/sean/.arduino15/packages/adafruit/tools/arm-none-eabi-gcc/9-2019q4/bin/../lib/gcc/arm-none-eabi/9.2.1/../../../../arm-none-eabi/lib/thumb/v7e-m+fp/hard/libc.a(lib_a-freer.o)
 .ARM.attributes
                0x000000000000070c       0x34 /home/sean/.arduino15/packages/adafruit/tools/arm-none-eabi-gcc/9-2019q4/bin/../lib/gcc/arm-none-eabi/9.2.1/../../../../arm-none-eabi/lib/thumb/v7e-m+fp/hard/libc.a(lib_a-lock.o)
 .ARM.attributes
                0x0000000000000740       0x34 /home/sean/.arduino15/packages/adafruit/tools/arm-none-eabi-gcc/9-2019q4/bin/../lib/gcc/arm-none-eabi/9.2.1/../../../../arm-none-eabi/lib/thumb/v7e-m+fp/hard/libc.a(lib_a-reent.o)
 .ARM.attributes
                0x0000000000000774       0x34 /home/sean/.arduino15/packages/adafruit/tools/arm-none-eabi-gcc/9-2019q4/bin/../lib/gcc/arm-none-eabi/9.2.1/../../../../arm-none-eabi/lib/thumb/v7e-m+fp/hard/libc.a(lib_a-__atexit.o)
 .ARM.attributes
                0x00000000000007a8       0x34 /home/sean/.arduino15/packages/adafruit/tools/arm-none-eabi-gcc/9-2019q4/bin/../lib/gcc/arm-none-eabi/9.2.1/../../../../arm-none-eabi/lib/thumb/v7e-m+fp/hard/libnosys.a(sbrk.o)
 .ARM.attributes
                0x00000000000007dc       0x34 /home/sean/.arduino15/packages/adafruit/tools/arm-none-eabi-gcc/9-2019q4/bin/../lib/gcc/arm-none-eabi/9.2.1/../../../../arm-none-eabi/lib/thumb/v7e-m+fp/hard/libnosys.a(_exit.o)
 .ARM.attributes
                0x0000000000000810       0x32 /home/sean/.arduino15/packages/adafruit/tools/arm-none-eabi-gcc/9-2019q4/bin/../lib/gcc/arm-none-eabi/9.2.1/thumb/v7e-m+fp/hard/crtend.o
 .ARM.attributes
                0x0000000000000842       0x1e /home/sean/.arduino15/packages/adafruit/tools/arm-none-eabi-gcc/9-2019q4/bin/../lib/gcc/arm-none-eabi/9.2.1/thumb/v7e-m+fp/hard/crtn.o

.comment        0x0000000000000000       0x79
 .comment       0x0000000000000000       0x79 /home/sean/.cache/arduino/sketches/828FCB417685B578D8734FE54D6C0719/sketch/led.c.o
                                         0x7a (size before relaxing)
 .comment       0x0000000000000079       0x7a /home/sean/.cache/arduino/sketches/828FCB417685B578D8734FE54D6C0719/sketch/macro-blues.ino.cpp.o
 .comment       0x0000000000000079       0x7a /home/sean/.cache/arduino/sketches/828FCB417685B578D8734FE54D6C0719/core/variant.cpp.o
 .comment       0x0000000000000079       0x7a /home/sean/.cache/arduino/sketches/828FCB417685B578D8734FE54D6C0719/../../cores/adafruit_nrf52_feather52832_834d5f6a6bc090e19e7c4385762c2a0a/core.a(main.cpp.o)
 .comment       0x0000000000000079       0x7a /home/sean/.cache/arduino/sketches/828FCB417685B578D8734FE54D6C0719/../../cores/adafruit_nrf52_feather52832_834d5f6a6bc090e19e7c4385762c2a0a/core.a(system_nrf52.c.o)
 .comment       0x0000000000000079       0x7a /home/sean/.cache/arduino/sketches/828FCB417685B578D8734FE54D6C0719/../../cores/adafruit_nrf52_feather52832_834d5f6a6bc090e19e7c4385762c2a0a/core.a(rtos.cpp.o)
 .comment       0x0000000000000079       0x7a /home/sean/.cache/arduino/sketches/828FCB417685B578D8734FE54D6C0719/../../cores/adafruit_nrf52_feather52832_834d5f6a6bc090e19e7c4385762c2a0a/core.a(AdaCallback.c.o)
 .comment       0x0000000000000079       0x7a /home/sean/.cache/arduino/sketches/828FCB417685B578D8734FE54D6C0719/../../cores/adafruit_nrf52_feather52832_834d5f6a6bc090e19e7c4385762c2a0a/core.a(wiring.c.o)
 .comment       0x0000000000000079       0x7a /home/sean/.cache/arduino/sketches/828FCB417685B578D8734FE54D6C0719/../../cores/adafruit_nrf52_feather52832_834d5f6a6bc090e19e7c4385762c2a0a/core.a(wiring_digital.c.o)
 .comment       0x0000000000000079       0x7a /home/sean/.cache/arduino/sketches/828FCB417685B578D8734FE54D6C0719/../../cores/adafruit_nrf52_feather52832_834d5f6a6bc090e19e7c4385762c2a0a/core.a(Uart.cpp.o)
 .comment       0x0000000000000079       0x7a /home/sean/.cache/arduino/sketches/828FCB417685B578D8734FE54D6C0719/../../cores/adafruit_nrf52_feather52832_834d5f6a6bc090e19e7c4385762c2a0a/core.a(heap_3.c.o)
 .comment       0x0000000000000079       0x7a /home/sean/.cache/arduino/sketches/828FCB417685B578D8734FE54D6C0719/../../cores/adafruit_nrf52_feather52832_834d5f6a6bc090e19e7c4385762c2a0a/core.a(queue.c.o)
 .comment       0x0000000000000079       0x7a /home/sean/.cache/arduino/sketches/828FCB417685B578D8734FE54D6C0719/../../cores/adafruit_nrf52_feather52832_834d5f6a6bc090e19e7c4385762c2a0a/core.a(tasks.c.o)
 .comment       0x0000000000000079       0x7a /home/sean/.cache/arduino/sketches/828FCB417685B578D8734FE54D6C0719/../../cores/adafruit_nrf52_feather52832_834d5f6a6bc090e19e7c4385762c2a0a/core.a(timers.c.o)
 .comment       0x0000000000000079       0x7a /home/sean/.cache/arduino/sketches/828FCB417685B578D8734FE54D6C0719/../../cores/adafruit_nrf52_feather52832_834d5f6a6bc090e19e7c4385762c2a0a/core.a(port_cmsis.c.o)
 .comment       0x0000000000000079       0x7a /home/sean/.cache/arduino/sketches/828FCB417685B578D8734FE54D6C0719/../../cores/adafruit_nrf52_feather52832_834d5f6a6bc090e19e7c4385762c2a0a/core.a(port_cmsis_systick.c.o)
 .comment       0x0000000000000079       0x7a /home/sean/.cache/arduino/sketches/828FCB417685B578D8734FE54D6C0719/../../cores/adafruit_nrf52_feather52832_834d5f6a6bc090e19e7c4385762c2a0a/core.a(port.c.o)
 .comment       0x0000000000000079       0x7a /home/sean/.cache/arduino/sketches/828FCB417685B578D8734FE54D6C0719/../../cores/adafruit_nrf52_feather52832_834d5f6a6bc090e19e7c4385762c2a0a/core.a(hooks.c.o)
 .comment       0x0000000000000079       0x7a /home/sean/.cache/arduino/sketches/828FCB417685B578D8734FE54D6C0719/../../cores/adafruit_nrf52_feather52832_834d5f6a6bc090e19e7c4385762c2a0a/core.a(RingBuffer.cpp.o)
 .comment       0x0000000000000079       0x7a /home/sean/.cache/arduino/sketches/828FCB417685B578D8734FE54D6C0719/../../cores/adafruit_nrf52_feather52832_834d5f6a6bc090e19e7c4385762c2a0a/core.a(list.c.o)

.debug_frame    0x0000000000000000     0x1bf4
 .debug_frame   0x0000000000000000       0x20 /home/sean/.arduino15/packages/adafruit/tools/arm-none-eabi-gcc/9-2019q4/bin/../lib/gcc/arm-none-eabi/9.2.1/thumb/v7e-m+fp/hard/crtfastmath.o
 .debug_frame   0x0000000000000020       0x3c /home/sean/.cache/arduino/sketches/828FCB417685B578D8734FE54D6C0719/sketch/led.c.o
 .debug_frame   0x000000000000005c       0x30 /home/sean/.cache/arduino/sketches/828FCB417685B578D8734FE54D6C0719/sketch/macro-blues.ino.cpp.o
 .debug_frame   0x000000000000008c       0x2c /home/sean/.cache/arduino/sketches/828FCB417685B578D8734FE54D6C0719/core/variant.cpp.o
 .debug_frame   0x00000000000000b8       0x80 /home/sean/.cache/arduino/sketches/828FCB417685B578D8734FE54D6C0719/../../cores/adafruit_nrf52_feather52832_834d5f6a6bc090e19e7c4385762c2a0a/core.a(main.cpp.o)
 .debug_frame   0x0000000000000138       0x40 /home/sean/.cache/arduino/sketches/828FCB417685B578D8734FE54D6C0719/../../cores/adafruit_nrf52_feather52832_834d5f6a6bc090e19e7c4385762c2a0a/core.a(system_nrf52.c.o)
 .debug_frame   0x0000000000000178       0xc8 /home/sean/.cache/arduino/sketches/828FCB417685B578D8734FE54D6C0719/../../cores/adafruit_nrf52_feather52832_834d5f6a6bc090e19e7c4385762c2a0a/core.a(rtos.cpp.o)
 .debug_frame   0x0000000000000240       0xd0 /home/sean/.cache/arduino/sketches/828FCB417685B578D8734FE54D6C0719/../../cores/adafruit_nrf52_feather52832_834d5f6a6bc090e19e7c4385762c2a0a/core.a(AdaCallback.c.o)
 .debug_frame   0x0000000000000310      0x158 /home/sean/.cache/arduino/sketches/828FCB417685B578D8734FE54D6C0719/../../cores/adafruit_nrf52_feather52832_834d5f6a6bc090e19e7c4385762c2a0a/core.a(wiring.c.o)
 .debug_frame   0x0000000000000468       0x70 /home/sean/.cache/arduino/sketches/828FCB417685B578D8734FE54D6C0719/../../cores/adafruit_nrf52_feather52832_834d5f6a6bc090e19e7c4385762c2a0a/core.a(wiring_digital.c.o)
 .debug_frame   0x00000000000004d8      0x210 /home/sean/.cache/arduino/sketches/828FCB417685B578D8734FE54D6C0719/../../cores/adafruit_nrf52_feather52832_834d5f6a6bc090e19e7c4385762c2a0a/core.a(Uart.cpp.o)
 .debug_frame   0x00000000000006e8      0x134 /home/sean/.cache/arduino/sketches/828FCB417685B578D8734FE54D6C0719/../../cores/adafruit_nrf52_feather52832_834d5f6a6bc090e19e7c4385762c2a0a/core.a(heap_3.c.o)
 .debug_frame   0x000000000000081c      0x3b0 /home/sean/.cache/arduino/sketches/828FCB417685B578D8734FE54D6C0719/../../cores/adafruit_nrf52_feather52832_834d5f6a6bc090e19e7c4385762c2a0a/core.a(queue.c.o)
 .debug_frame   0x0000000000000bcc      0x6f0 /home/sean/.cache/arduino/sketches/828FCB417685B578D8734FE54D6C0719/../../cores/adafruit_nrf52_feather52832_834d5f6a6bc090e19e7c4385762c2a0a/core.a(tasks.c.o)
 .debug_frame   0x00000000000012bc      0x22c /home/sean/.cache/arduino/sketches/828FCB417685B578D8734FE54D6C0719/../../cores/adafruit_nrf52_feather52832_834d5f6a6bc090e19e7c4385762c2a0a/core.a(timers.c.o)
 .debug_frame   0x00000000000014e8       0x84 /home/sean/.cache/arduino/sketches/828FCB417685B578D8734FE54D6C0719/../../cores/adafruit_nrf52_feather52832_834d5f6a6bc090e19e7c4385762c2a0a/core.a(port_cmsis.c.o)
 .debug_frame   0x000000000000156c       0x9c /home/sean/.cache/arduino/sketches/828FCB417685B578D8734FE54D6C0719/../../cores/adafruit_nrf52_feather52832_834d5f6a6bc090e19e7c4385762c2a0a/core.a(port_cmsis_systick.c.o)
 .debug_frame   0x0000000000001608       0x40 /home/sean/.cache/arduino/sketches/828FCB417685B578D8734FE54D6C0719/../../cores/adafruit_nrf52_feather52832_834d5f6a6bc090e19e7c4385762c2a0a/core.a(port.c.o)
 .debug_frame   0x0000000000001648       0x40 /home/sean/.cache/arduino/sketches/828FCB417685B578D8734FE54D6C0719/../../cores/adafruit_nrf52_feather52832_834d5f6a6bc090e19e7c4385762c2a0a/core.a(hooks.c.o)
 .debug_frame   0x0000000000001688       0xb4 /home/sean/.cache/arduino/sketches/828FCB417685B578D8734FE54D6C0719/../../cores/adafruit_nrf52_feather52832_834d5f6a6bc090e19e7c4385762c2a0a/core.a(RingBuffer.cpp.o)
 .debug_frame   0x000000000000173c       0x88 /home/sean/.cache/arduino/sketches/828FCB417685B578D8734FE54D6C0719/../../cores/adafruit_nrf52_feather52832_834d5f6a6bc090e19e7c4385762c2a0a/core.a(list.c.o)
 .debug_frame   0x00000000000017c4       0x28 /home/sean/.arduino15/packages/adafruit/tools/arm-none-eabi-gcc/9-2019q4/bin/../lib/gcc/arm-none-eabi/9.2.1/../../../../arm-none-eabi/lib/thumb/v7e-m+fp/hard/libc.a(lib_a-exit.o)
 .debug_frame   0x00000000000017ec       0x2c /home/sean/.arduino15/packages/adafruit/tools/arm-none-eabi-gcc/9-2019q4/bin/../lib/gcc/arm-none-eabi/9.2.1/../../../../arm-none-eabi/lib/thumb/v7e-m+fp/hard/libc.a(lib_a-init.o)
 .debug_frame   0x0000000000001818       0x30 /home/sean/.arduino15/packages/adafruit/tools/arm-none-eabi-gcc/9-2019q4/bin/../lib/gcc/arm-none-eabi/9.2.1/../../../../arm-none-eabi/lib/thumb/v7e-m+fp/hard/libc.a(lib_a-malloc.o)
 .debug_frame   0x0000000000001848       0x4c /home/sean/.arduino15/packages/adafruit/tools/arm-none-eabi-gcc/9-2019q4/bin/../lib/gcc/arm-none-eabi/9.2.1/../../../../arm-none-eabi/lib/thumb/v7e-m+fp/hard/libc.a(lib_a-mallocr.o)
 .debug_frame   0x0000000000001894       0x38 /home/sean/.arduino15/packages/adafruit/tools/arm-none-eabi-gcc/9-2019q4/bin/../lib/gcc/arm-none-eabi/9.2.1/../../../../arm-none-eabi/lib/thumb/v7e-m+fp/hard/libc.a(lib_a-memset.o)
 .debug_frame   0x00000000000018cc       0x30 /home/sean/.arduino15/packages/adafruit/tools/arm-none-eabi-gcc/9-2019q4/bin/../lib/gcc/arm-none-eabi/9.2.1/../../../../arm-none-eabi/lib/thumb/v7e-m+fp/hard/libc.a(lib_a-mlock.o)
 .debug_frame   0x00000000000018fc       0x2c /home/sean/.arduino15/packages/adafruit/tools/arm-none-eabi-gcc/9-2019q4/bin/../lib/gcc/arm-none-eabi/9.2.1/../../../../arm-none-eabi/lib/thumb/v7e-m+fp/hard/libc.a(lib_a-sbrkr.o)
 .debug_frame   0x0000000000001928       0x68 /home/sean/.arduino15/packages/adafruit/tools/arm-none-eabi-gcc/9-2019q4/bin/../lib/gcc/arm-none-eabi/9.2.1/../../../../arm-none-eabi/lib/thumb/v7e-m+fp/hard/libc.a(lib_a-__call_atexit.o)
 .debug_frame   0x0000000000001990       0x20 /home/sean/.arduino15/packages/adafruit/tools/arm-none-eabi-gcc/9-2019q4/bin/../lib/gcc/arm-none-eabi/9.2.1/../../../../arm-none-eabi/lib/thumb/v7e-m+fp/hard/libc.a(lib_a-atexit.o)
 .debug_frame   0x00000000000019b0       0x34 /home/sean/.arduino15/packages/adafruit/tools/arm-none-eabi-gcc/9-2019q4/bin/../lib/gcc/arm-none-eabi/9.2.1/../../../../arm-none-eabi/lib/thumb/v7e-m+fp/hard/libc.a(lib_a-fini.o)
 .debug_frame   0x00000000000019e4       0x8c /home/sean/.arduino15/packages/adafruit/tools/arm-none-eabi-gcc/9-2019q4/bin/../lib/gcc/arm-none-eabi/9.2.1/../../../../arm-none-eabi/lib/thumb/v7e-m+fp/hard/libc.a(lib_a-freer.o)
 .debug_frame   0x0000000000001a70       0xb0 /home/sean/.arduino15/packages/adafruit/tools/arm-none-eabi-gcc/9-2019q4/bin/../lib/gcc/arm-none-eabi/9.2.1/../../../../arm-none-eabi/lib/thumb/v7e-m+fp/hard/libc.a(lib_a-lock.o)
 .debug_frame   0x0000000000001b20       0x60 /home/sean/.arduino15/packages/adafruit/tools/arm-none-eabi-gcc/9-2019q4/bin/../lib/gcc/arm-none-eabi/9.2.1/../../../../arm-none-eabi/lib/thumb/v7e-m+fp/hard/libc.a(lib_a-reent.o)
 .debug_frame   0x0000000000001b80       0x34 /home/sean/.arduino15/packages/adafruit/tools/arm-none-eabi-gcc/9-2019q4/bin/../lib/gcc/arm-none-eabi/9.2.1/../../../../arm-none-eabi/lib/thumb/v7e-m+fp/hard/libc.a(lib_a-__atexit.o)
 .debug_frame   0x0000000000001bb4       0x20 /home/sean/.arduino15/packages/adafruit/tools/arm-none-eabi-gcc/9-2019q4/bin/../lib/gcc/arm-none-eabi/9.2.1/../../../../arm-none-eabi/lib/thumb/v7e-m+fp/hard/libnosys.a(sbrk.o)
 .debug_frame   0x0000000000001bd4       0x20 /home/sean/.arduino15/packages/adafruit/tools/arm-none-eabi-gcc/9-2019q4/bin/../lib/gcc/arm-none-eabi/9.2.1/../../../../arm-none-eabi/lib/thumb/v7e-m+fp/hard/libnosys.a(_exit.o)

.debug_info     0x0000000000000000    0x2ec1d
 .debug_info    0x0000000000000000      0x5b1 /home/sean/.cache/arduino/sketches/828FCB417685B578D8734FE54D6C0719/sketch/led.c.o
 .debug_info    0x00000000000005b1     0x599a /home/sean/.cache/arduino/sketches/828FCB417685B578D8734FE54D6C0719/sketch/macro-blues.ino.cpp.o
 .debug_info    0x0000000000005f4b      0x232 /home/sean/.cache/arduino/sketches/828FCB417685B578D8734FE54D6C0719/core/variant.cpp.o
 .debug_info    0x000000000000617d       0x26 /home/sean/.cache/arduino/sketches/828FCB417685B578D8734FE54D6C0719/../../cores/adafruit_nrf52_feather52832_834d5f6a6bc090e19e7c4385762c2a0a/core.a(gcc_startup_nrf52.S.o)
 .debug_info    0x00000000000061a3     0x5ea5 /home/sean/.cache/arduino/sketches/828FCB417685B578D8734FE54D6C0719/../../cores/adafruit_nrf52_feather52832_834d5f6a6bc090e19e7c4385762c2a0a/core.a(main.cpp.o)
 .debug_info    0x000000000000c048     0x1282 /home/sean/.cache/arduino/sketches/828FCB417685B578D8734FE54D6C0719/../../cores/adafruit_nrf52_feather52832_834d5f6a6bc090e19e7c4385762c2a0a/core.a(system_nrf52.c.o)
 .debug_info    0x000000000000d2ca     0x5fc0 /home/sean/.cache/arduino/sketches/828FCB417685B578D8734FE54D6C0719/../../cores/adafruit_nrf52_feather52832_834d5f6a6bc090e19e7c4385762c2a0a/core.a(rtos.cpp.o)
 .debug_info    0x000000000001328a     0x137e /home/sean/.cache/arduino/sketches/828FCB417685B578D8734FE54D6C0719/../../cores/adafruit_nrf52_feather52832_834d5f6a6bc090e19e7c4385762c2a0a/core.a(AdaCallback.c.o)
 .debug_info    0x0000000000014608     0x238e /home/sean/.cache/arduino/sketches/828FCB417685B578D8734FE54D6C0719/../../cores/adafruit_nrf52_feather52832_834d5f6a6bc090e19e7c4385762c2a0a/core.a(wiring.c.o)
 .debug_info    0x0000000000016996      0xfdb /home/sean/.cache/arduino/sketches/828FCB417685B578D8734FE54D6C0719/../../cores/adafruit_nrf52_feather52832_834d5f6a6bc090e19e7c4385762c2a0a/core.a(wiring_digital.c.o)
 .debug_info    0x0000000000017971     0x762d /home/sean/.cache/arduino/sketches/828FCB417685B578D8734FE54D6C0719/../../cores/adafruit_nrf52_feather52832_834d5f6a6bc090e19e7c4385762c2a0a/core.a(Uart.cpp.o)
 .debug_info    0x000000000001ef9e      0xfcb /home/sean/.cache/arduino/sketches/828FCB417685B578D8734FE54D6C0719/../../cores/adafruit_nrf52_feather52832_834d5f6a6bc090e19e7c4385762c2a0a/core.a(heap_3.c.o)
 .debug_info    0x000000000001ff69     0x3fa3 /home/sean/.cache/arduino/sketches/828FCB417685B578D8734FE54D6C0719/../../cores/adafruit_nrf52_feather52832_834d5f6a6bc090e19e7c4385762c2a0a/core.a(queue.c.o)
 .debug_info    0x0000000000023f0c     0x4a44 /home/sean/.cache/arduino/sketches/828FCB417685B578D8734FE54D6C0719/../../cores/adafruit_nrf52_feather52832_834d5f6a6bc090e19e7c4385762c2a0a/core.a(tasks.c.o)
 .debug_info    0x0000000000028950     0x26da /home/sean/.cache/arduino/sketches/828FCB417685B578D8734FE54D6C0719/../../cores/adafruit_nrf52_feather52832_834d5f6a6bc090e19e7c4385762c2a0a/core.a(timers.c.o)
 .debug_info    0x000000000002b02a      0x90b /home/sean/.cache/arduino/sketches/828FCB417685B578D8734FE54D6C0719/../../cores/adafruit_nrf52_feather52832_834d5f6a6bc090e19e7c4385762c2a0a/core.a(port_cmsis.c.o)
 .debug_info    0x000000000002b935     0x1835 /home/sean/.cache/arduino/sketches/828FCB417685B578D8734FE54D6C0719/../../cores/adafruit_nrf52_feather52832_834d5f6a6bc090e19e7c4385762c2a0a/core.a(port_cmsis_systick.c.o)
 .debug_info    0x000000000002d16a       0xfe /home/sean/.cache/arduino/sketches/828FCB417685B578D8734FE54D6C0719/../../cores/adafruit_nrf52_feather52832_834d5f6a6bc090e19e7c4385762c2a0a/core.a(port.c.o)
 .debug_info    0x000000000002d268       0x67 /home/sean/.cache/arduino/sketches/828FCB417685B578D8734FE54D6C0719/../../cores/adafruit_nrf52_feather52832_834d5f6a6bc090e19e7c4385762c2a0a/core.a(hooks.c.o)
 .debug_info    0x000000000002d2cf      0xd99 /home/sean/.cache/arduino/sketches/828FCB417685B578D8734FE54D6C0719/../../cores/adafruit_nrf52_feather52832_834d5f6a6bc090e19e7c4385762c2a0a/core.a(RingBuffer.cpp.o)
 .debug_info    0x000000000002e068      0xbb5 /home/sean/.cache/arduino/sketches/828FCB417685B578D8734FE54D6C0719/../../cores/adafruit_nrf52_feather52832_834d5f6a6bc090e19e7c4385762c2a0a/core.a(list.c.o)

.debug_abbrev   0x0000000000000000     0x555a
 .debug_abbrev  0x0000000000000000      0x204 /home/sean/.cache/arduino/sketches/828FCB417685B578D8734FE54D6C0719/sketch/led.c.o
 .debug_abbrev  0x0000000000000204      0x70f /home/sean/.cache/arduino/sketches/828FCB417685B578D8734FE54D6C0719/sketch/macro-blues.ino.cpp.o
 .debug_abbrev  0x0000000000000913      0x109 /home/sean/.cache/arduino/sketches/828FCB417685B578D8734FE54D6C0719/core/variant.cpp.o
 .debug_abbrev  0x0000000000000a1c       0x14 /home/sean/.cache/arduino/sketches/828FCB417685B578D8734FE54D6C0719/../../cores/adafruit_nrf52_feather52832_834d5f6a6bc090e19e7c4385762c2a0a/core.a(gcc_startup_nrf52.S.o)
 .debug_abbrev  0x0000000000000a30      0x88c /home/sean/.cache/arduino/sketches/828FCB417685B578D8734FE54D6C0719/../../cores/adafruit_nrf52_feather52832_834d5f6a6bc090e19e7c4385762c2a0a/core.a(main.cpp.o)
 .debug_abbrev  0x00000000000012bc      0x211 /home/sean/.cache/arduino/sketches/828FCB417685B578D8734FE54D6C0719/../../cores/adafruit_nrf52_feather52832_834d5f6a6bc090e19e7c4385762c2a0a/core.a(system_nrf52.c.o)
 .debug_abbrev  0x00000000000014cd      0x8a2 /home/sean/.cache/arduino/sketches/828FCB417685B578D8734FE54D6C0719/../../cores/adafruit_nrf52_feather52832_834d5f6a6bc090e19e7c4385762c2a0a/core.a(rtos.cpp.o)
 .debug_abbrev  0x0000000000001d6f      0x42a /home/sean/.cache/arduino/sketches/828FCB417685B578D8734FE54D6C0719/../../cores/adafruit_nrf52_feather52832_834d5f6a6bc090e19e7c4385762c2a0a/core.a(AdaCallback.c.o)
 .debug_abbrev  0x0000000000002199      0x4c7 /home/sean/.cache/arduino/sketches/828FCB417685B578D8734FE54D6C0719/../../cores/adafruit_nrf52_feather52832_834d5f6a6bc090e19e7c4385762c2a0a/core.a(wiring.c.o)
 .debug_abbrev  0x0000000000002660      0x394 /home/sean/.cache/arduino/sketches/828FCB417685B578D8734FE54D6C0719/../../cores/adafruit_nrf52_feather52832_834d5f6a6bc090e19e7c4385762c2a0a/core.a(wiring_digital.c.o)
 .debug_abbrev  0x00000000000029f4      0xaa7 /home/sean/.cache/arduino/sketches/828FCB417685B578D8734FE54D6C0719/../../cores/adafruit_nrf52_feather52832_834d5f6a6bc090e19e7c4385762c2a0a/core.a(Uart.cpp.o)
 .debug_abbrev  0x000000000000349b      0x368 /home/sean/.cache/arduino/sketches/828FCB417685B578D8734FE54D6C0719/../../cores/adafruit_nrf52_feather52832_834d5f6a6bc090e19e7c4385762c2a0a/core.a(heap_3.c.o)
 .debug_abbrev  0x0000000000003803      0x509 /home/sean/.cache/arduino/sketches/828FCB417685B578D8734FE54D6C0719/../../cores/adafruit_nrf52_feather52832_834d5f6a6bc090e19e7c4385762c2a0a/core.a(queue.c.o)
 .debug_abbrev  0x0000000000003d0c      0x5ee /home/sean/.cache/arduino/sketches/828FCB417685B578D8734FE54D6C0719/../../cores/adafruit_nrf52_feather52832_834d5f6a6bc090e19e7c4385762c2a0a/core.a(tasks.c.o)
 .debug_abbrev  0x00000000000042fa      0x4c6 /home/sean/.cache/arduino/sketches/828FCB417685B578D8734FE54D6C0719/../../cores/adafruit_nrf52_feather52832_834d5f6a6bc090e19e7c4385762c2a0a/core.a(timers.c.o)
 .debug_abbrev  0x00000000000047c0      0x2ec /home/sean/.cache/arduino/sketches/828FCB417685B578D8734FE54D6C0719/../../cores/adafruit_nrf52_feather52832_834d5f6a6bc090e19e7c4385762c2a0a/core.a(port_cmsis.c.o)
 .debug_abbrev  0x0000000000004aac      0x437 /home/sean/.cache/arduino/sketches/828FCB417685B578D8734FE54D6C0719/../../cores/adafruit_nrf52_feather52832_834d5f6a6bc090e19e7c4385762c2a0a/core.a(port_cmsis_systick.c.o)
 .debug_abbrev  0x0000000000004ee3       0x80 /home/sean/.cache/arduino/sketches/828FCB417685B578D8734FE54D6C0719/../../cores/adafruit_nrf52_feather52832_834d5f6a6bc090e19e7c4385762c2a0a/core.a(port.c.o)
 .debug_abbrev  0x0000000000004f63       0x4d /home/sean/.cache/arduino/sketches/828FCB417685B578D8734FE54D6C0719/../../cores/adafruit_nrf52_feather52832_834d5f6a6bc090e19e7c4385762c2a0a/core.a(hooks.c.o)
 .debug_abbrev  0x0000000000004fb0      0x361 /home/sean/.cache/arduino/sketches/828FCB417685B578D8734FE54D6C0719/../../cores/adafruit_nrf52_feather52832_834d5f6a6bc090e19e7c4385762c2a0a/core.a(RingBuffer.cpp.o)
 .debug_abbrev  0x0000000000005311      0x249 /home/sean/.cache/arduino/sketches/828FCB417685B578D8734FE54D6C0719/../../cores/adafruit_nrf52_feather52832_834d5f6a6bc090e19e7c4385762c2a0a/core.a(list.c.o)

.debug_loc      0x0000000000000000     0xac67
 .debug_loc     0x0000000000000000      0x111 /home/sean/.cache/arduino/sketches/828FCB417685B578D8734FE54D6C0719/sketch/led.c.o
 .debug_loc     0x0000000000000111       0xb8 /home/sean/.cache/arduino/sketches/828FCB417685B578D8734FE54D6C0719/../../cores/adafruit_nrf52_feather52832_834d5f6a6bc090e19e7c4385762c2a0a/core.a(main.cpp.o)
 .debug_loc     0x00000000000001c9      0x5b0 /home/sean/.cache/arduino/sketches/828FCB417685B578D8734FE54D6C0719/../../cores/adafruit_nrf52_feather52832_834d5f6a6bc090e19e7c4385762c2a0a/core.a(system_nrf52.c.o)
 .debug_loc     0x0000000000000779      0x169 /home/sean/.cache/arduino/sketches/828FCB417685B578D8734FE54D6C0719/../../cores/adafruit_nrf52_feather52832_834d5f6a6bc090e19e7c4385762c2a0a/core.a(rtos.cpp.o)
 .debug_loc     0x00000000000008e2      0x3ab /home/sean/.cache/arduino/sketches/828FCB417685B578D8734FE54D6C0719/../../cores/adafruit_nrf52_feather52832_834d5f6a6bc090e19e7c4385762c2a0a/core.a(AdaCallback.c.o)
 .debug_loc     0x0000000000000c8d      0x250 /home/sean/.cache/arduino/sketches/828FCB417685B578D8734FE54D6C0719/../../cores/adafruit_nrf52_feather52832_834d5f6a6bc090e19e7c4385762c2a0a/core.a(wiring.c.o)
 .debug_loc     0x0000000000000edd      0x6c2 /home/sean/.cache/arduino/sketches/828FCB417685B578D8734FE54D6C0719/../../cores/adafruit_nrf52_feather52832_834d5f6a6bc090e19e7c4385762c2a0a/core.a(wiring_digital.c.o)
 .debug_loc     0x000000000000159f     0x1189 /home/sean/.cache/arduino/sketches/828FCB417685B578D8734FE54D6C0719/../../cores/adafruit_nrf52_feather52832_834d5f6a6bc090e19e7c4385762c2a0a/core.a(Uart.cpp.o)
 .debug_loc     0x0000000000002728      0x520 /home/sean/.cache/arduino/sketches/828FCB417685B578D8734FE54D6C0719/../../cores/adafruit_nrf52_feather52832_834d5f6a6bc090e19e7c4385762c2a0a/core.a(heap_3.c.o)
 .debug_loc     0x0000000000002c48     0x2902 /home/sean/.cache/arduino/sketches/828FCB417685B578D8734FE54D6C0719/../../cores/adafruit_nrf52_feather52832_834d5f6a6bc090e19e7c4385762c2a0a/core.a(queue.c.o)
 .debug_loc     0x000000000000554a     0x366c /home/sean/.cache/arduino/sketches/828FCB417685B578D8734FE54D6C0719/../../cores/adafruit_nrf52_feather52832_834d5f6a6bc090e19e7c4385762c2a0a/core.a(tasks.c.o)
 .debug_loc     0x0000000000008bb6     0x130c /home/sean/.cache/arduino/sketches/828FCB417685B578D8734FE54D6C0719/../../cores/adafruit_nrf52_feather52832_834d5f6a6bc090e19e7c4385762c2a0a/core.a(timers.c.o)
 .debug_loc     0x0000000000009ec2      0x105 /home/sean/.cache/arduino/sketches/828FCB417685B578D8734FE54D6C0719/../../cores/adafruit_nrf52_feather52832_834d5f6a6bc090e19e7c4385762c2a0a/core.a(port_cmsis.c.o)
 .debug_loc     0x0000000000009fc7      0x9cf /home/sean/.cache/arduino/sketches/828FCB417685B578D8734FE54D6C0719/../../cores/adafruit_nrf52_feather52832_834d5f6a6bc090e19e7c4385762c2a0a/core.a(port_cmsis_systick.c.o)
 .debug_loc     0x000000000000a996      0x215 /home/sean/.cache/arduino/sketches/828FCB417685B578D8734FE54D6C0719/../../cores/adafruit_nrf52_feather52832_834d5f6a6bc090e19e7c4385762c2a0a/core.a(RingBuffer.cpp.o)
 .debug_loc     0x000000000000abab       0xbc /home/sean/.cache/arduino/sketches/828FCB417685B578D8734FE54D6C0719/../../cores/adafruit_nrf52_feather52832_834d5f6a6bc090e19e7c4385762c2a0a/core.a(list.c.o)

.debug_aranges  0x0000000000000000      0x868
 .debug_aranges
                0x0000000000000000       0x28 /home/sean/.cache/arduino/sketches/828FCB417685B578D8734FE54D6C0719/sketch/led.c.o
 .debug_aranges
                0x0000000000000028       0x28 /home/sean/.cache/arduino/sketches/828FCB417685B578D8734FE54D6C0719/sketch/macro-blues.ino.cpp.o
 .debug_aranges
                0x0000000000000050       0x20 /home/sean/.cache/arduino/sketches/828FCB417685B578D8734FE54D6C0719/core/variant.cpp.o
 .debug_aranges
                0x0000000000000070       0x20 /home/sean/.cache/arduino/sketches/828FCB417685B578D8734FE54D6C0719/../../cores/adafruit_nrf52_feather52832_834d5f6a6bc090e19e7c4385762c2a0a/core.a(gcc_startup_nrf52.S.o)
 .debug_aranges
                0x0000000000000090       0x48 /home/sean/.cache/arduino/sketches/828FCB417685B578D8734FE54D6C0719/../../cores/adafruit_nrf52_feather52832_834d5f6a6bc090e19e7c4385762c2a0a/core.a(main.cpp.o)
 .debug_aranges
                0x00000000000000d8       0x28 /home/sean/.cache/arduino/sketches/828FCB417685B578D8734FE54D6C0719/../../cores/adafruit_nrf52_feather52832_834d5f6a6bc090e19e7c4385762c2a0a/core.a(system_nrf52.c.o)
 .debug_aranges
                0x0000000000000100       0x58 /home/sean/.cache/arduino/sketches/828FCB417685B578D8734FE54D6C0719/../../cores/adafruit_nrf52_feather52832_834d5f6a6bc090e19e7c4385762c2a0a/core.a(rtos.cpp.o)
 .debug_aranges
                0x0000000000000158       0x40 /home/sean/.cache/arduino/sketches/828FCB417685B578D8734FE54D6C0719/../../cores/adafruit_nrf52_feather52832_834d5f6a6bc090e19e7c4385762c2a0a/core.a(AdaCallback.c.o)
 .debug_aranges
                0x0000000000000198       0x88 /home/sean/.cache/arduino/sketches/828FCB417685B578D8734FE54D6C0719/../../cores/adafruit_nrf52_feather52832_834d5f6a6bc090e19e7c4385762c2a0a/core.a(wiring.c.o)
 .debug_aranges
                0x0000000000000220       0x48 /home/sean/.cache/arduino/sketches/828FCB417685B578D8734FE54D6C0719/../../cores/adafruit_nrf52_feather52832_834d5f6a6bc090e19e7c4385762c2a0a/core.a(wiring_digital.c.o)
 .debug_aranges
                0x0000000000000268       0xa8 /home/sean/.cache/arduino/sketches/828FCB417685B578D8734FE54D6C0719/../../cores/adafruit_nrf52_feather52832_834d5f6a6bc090e19e7c4385762c2a0a/core.a(Uart.cpp.o)
 .debug_aranges
                0x0000000000000310       0x58 /home/sean/.cache/arduino/sketches/828FCB417685B578D8734FE54D6C0719/../../cores/adafruit_nrf52_feather52832_834d5f6a6bc090e19e7c4385762c2a0a/core.a(heap_3.c.o)
 .debug_aranges
                0x0000000000000368      0x108 /home/sean/.cache/arduino/sketches/828FCB417685B578D8734FE54D6C0719/../../cores/adafruit_nrf52_feather52832_834d5f6a6bc090e19e7c4385762c2a0a/core.a(queue.c.o)
 .debug_aranges
                0x0000000000000470      0x1d0 /home/sean/.cache/arduino/sketches/828FCB417685B578D8734FE54D6C0719/../../cores/adafruit_nrf52_feather52832_834d5f6a6bc090e19e7c4385762c2a0a/core.a(tasks.c.o)
 .debug_aranges
                0x0000000000000640       0xa0 /home/sean/.cache/arduino/sketches/828FCB417685B578D8734FE54D6C0719/../../cores/adafruit_nrf52_feather52832_834d5f6a6bc090e19e7c4385762c2a0a/core.a(timers.c.o)
 .debug_aranges
                0x00000000000006e0       0x48 /home/sean/.cache/arduino/sketches/828FCB417685B578D8734FE54D6C0719/../../cores/adafruit_nrf52_feather52832_834d5f6a6bc090e19e7c4385762c2a0a/core.a(port_cmsis.c.o)
 .debug_aranges
                0x0000000000000728       0x40 /home/sean/.cache/arduino/sketches/828FCB417685B578D8734FE54D6C0719/../../cores/adafruit_nrf52_feather52832_834d5f6a6bc090e19e7c4385762c2a0a/core.a(port_cmsis_systick.c.o)
 .debug_aranges
                0x0000000000000768       0x30 /home/sean/.cache/arduino/sketches/828FCB417685B578D8734FE54D6C0719/../../cores/adafruit_nrf52_feather52832_834d5f6a6bc090e19e7c4385762c2a0a/core.a(port.c.o)
 .debug_aranges
                0x0000000000000798       0x30 /home/sean/.cache/arduino/sketches/828FCB417685B578D8734FE54D6C0719/../../cores/adafruit_nrf52_feather52832_834d5f6a6bc090e19e7c4385762c2a0a/core.a(hooks.c.o)
 .debug_aranges
                0x00000000000007c8       0x60 /home/sean/.cache/arduino/sketches/828FCB417685B578D8734FE54D6C0719/../../cores/adafruit_nrf52_feather52832_834d5f6a6bc090e19e7c4385762c2a0a/core.a(RingBuffer.cpp.o)
 .debug_aranges
                0x0000000000000828       0x40 /home/sean/.cache/arduino/sketches/828FCB417685B578D8734FE54D6C0719/../../cores/adafruit_nrf52_feather52832_834d5f6a6bc090e19e7c4385762c2a0a/core.a(list.c.o)

.debug_ranges   0x0000000000000000     0x22a8
 .debug_ranges  0x0000000000000000       0xc8 /home/sean/.cache/arduino/sketches/828FCB417685B578D8734FE54D6C0719/sketch/led.c.o
 .debug_ranges  0x00000000000000c8       0x18 /home/sean/.cache/arduino/sketches/828FCB417685B578D8734FE54D6C0719/sketch/macro-blues.ino.cpp.o
 .debug_ranges  0x00000000000000e0       0x10 /home/sean/.cache/arduino/sketches/828FCB417685B578D8734FE54D6C0719/core/variant.cpp.o
 .debug_ranges  0x00000000000000f0       0x38 /home/sean/.cache/arduino/sketches/828FCB417685B578D8734FE54D6C0719/../../cores/adafruit_nrf52_feather52832_834d5f6a6bc090e19e7c4385762c2a0a/core.a(main.cpp.o)
 .debug_ranges  0x0000000000000128      0x138 /home/sean/.cache/arduino/sketches/828FCB417685B578D8734FE54D6C0719/../../cores/adafruit_nrf52_feather52832_834d5f6a6bc090e19e7c4385762c2a0a/core.a(system_nrf52.c.o)
 .debug_ranges  0x0000000000000260       0x68 /home/sean/.cache/arduino/sketches/828FCB417685B578D8734FE54D6C0719/../../cores/adafruit_nrf52_feather52832_834d5f6a6bc090e19e7c4385762c2a0a/core.a(rtos.cpp.o)
 .debug_ranges  0x00000000000002c8       0xb8 /home/sean/.cache/arduino/sketches/828FCB417685B578D8734FE54D6C0719/../../cores/adafruit_nrf52_feather52832_834d5f6a6bc090e19e7c4385762c2a0a/core.a(AdaCallback.c.o)
 .debug_ranges  0x0000000000000380      0x140 /home/sean/.cache/arduino/sketches/828FCB417685B578D8734FE54D6C0719/../../cores/adafruit_nrf52_feather52832_834d5f6a6bc090e19e7c4385762c2a0a/core.a(wiring.c.o)
 .debug_ranges  0x00000000000004c0      0x120 /home/sean/.cache/arduino/sketches/828FCB417685B578D8734FE54D6C0719/../../cores/adafruit_nrf52_feather52832_834d5f6a6bc090e19e7c4385762c2a0a/core.a(wiring_digital.c.o)
 .debug_ranges  0x00000000000005e0      0x338 /home/sean/.cache/arduino/sketches/828FCB417685B578D8734FE54D6C0719/../../cores/adafruit_nrf52_feather52832_834d5f6a6bc090e19e7c4385762c2a0a/core.a(Uart.cpp.o)
 .debug_ranges  0x0000000000000918       0xd8 /home/sean/.cache/arduino/sketches/828FCB417685B578D8734FE54D6C0719/../../cores/adafruit_nrf52_feather52832_834d5f6a6bc090e19e7c4385762c2a0a/core.a(heap_3.c.o)
 .debug_ranges  0x00000000000009f0      0x700 /home/sean/.cache/arduino/sketches/828FCB417685B578D8734FE54D6C0719/../../cores/adafruit_nrf52_feather52832_834d5f6a6bc090e19e7c4385762c2a0a/core.a(queue.c.o)
 .debug_ranges  0x00000000000010f0      0x9c0 /home/sean/.cache/arduino/sketches/828FCB417685B578D8734FE54D6C0719/../../cores/adafruit_nrf52_feather52832_834d5f6a6bc090e19e7c4385762c2a0a/core.a(tasks.c.o)
 .debug_ranges  0x0000000000001ab0      0x2e0 /home/sean/.cache/arduino/sketches/828FCB417685B578D8734FE54D6C0719/../../cores/adafruit_nrf52_feather52832_834d5f6a6bc090e19e7c4385762c2a0a/core.a(timers.c.o)
 .debug_ranges  0x0000000000001d90       0x68 /home/sean/.cache/arduino/sketches/828FCB417685B578D8734FE54D6C0719/../../cores/adafruit_nrf52_feather52832_834d5f6a6bc090e19e7c4385762c2a0a/core.a(port_cmsis.c.o)
 .debug_ranges  0x0000000000001df8      0x3c0 /home/sean/.cache/arduino/sketches/828FCB417685B578D8734FE54D6C0719/../../cores/adafruit_nrf52_feather52832_834d5f6a6bc090e19e7c4385762c2a0a/core.a(port_cmsis_systick.c.o)
 .debug_ranges  0x00000000000021b8       0x20 /home/sean/.cache/arduino/sketches/828FCB417685B578D8734FE54D6C0719/../../cores/adafruit_nrf52_feather52832_834d5f6a6bc090e19e7c4385762c2a0a/core.a(port.c.o)
 .debug_ranges  0x00000000000021d8       0x20 /home/sean/.cache/arduino/sketches/828FCB417685B578D8734FE54D6C0719/../../cores/adafruit_nrf52_feather52832_834d5f6a6bc090e19e7c4385762c2a0a/core.a(hooks.c.o)
 .debug_ranges  0x00000000000021f8       0x80 /home/sean/.cache/arduino/sketches/828FCB417685B578D8734FE54D6C0719/../../cores/adafruit_nrf52_feather52832_834d5f6a6bc090e19e7c4385762c2a0a/core.a(RingBuffer.cpp.o)
 .debug_ranges  0x0000000000002278       0x30 /home/sean/.cache/arduino/sketches/828FCB417685B578D8734FE54D6C0719/../../cores/adafruit_nrf52_feather52832_834d5f6a6bc090e19e7c4385762c2a0a/core.a(list.c.o)

.debug_line     0x0000000000000000     0xe5d5
 .debug_line    0x0000000000000000      0x38e /home/sean/.cache/arduino/sketches/828FCB417685B578D8734FE54D6C0719/sketch/led.c.o
 .debug_line    0x000000000000038e      0x676 /home/sean/.cache/arduino/sketches/828FCB417685B578D8734FE54D6C0719/sketch/macro-blues.ino.cpp.o
 .debug_line    0x0000000000000a04      0x2df /home/sean/.cache/arduino/sketches/828FCB417685B578D8734FE54D6C0719/core/variant.cpp.o
 .debug_line    0x0000000000000ce3       0xbd /home/sean/.cache/arduino/sketches/828FCB417685B578D8734FE54D6C0719/../../cores/adafruit_nrf52_feather52832_834d5f6a6bc090e19e7c4385762c2a0a/core.a(gcc_startup_nrf52.S.o)
 .debug_line    0x0000000000000da0      0x919 /home/sean/.cache/arduino/sketches/828FCB417685B578D8734FE54D6C0719/../../cores/adafruit_nrf52_feather52832_834d5f6a6bc090e19e7c4385762c2a0a/core.a(main.cpp.o)
 .debug_line    0x00000000000016b9      0x750 /home/sean/.cache/arduino/sketches/828FCB417685B578D8734FE54D6C0719/../../cores/adafruit_nrf52_feather52832_834d5f6a6bc090e19e7c4385762c2a0a/core.a(system_nrf52.c.o)
 .debug_line    0x0000000000001e09      0x8f5 /home/sean/.cache/arduino/sketches/828FCB417685B578D8734FE54D6C0719/../../cores/adafruit_nrf52_feather52832_834d5f6a6bc090e19e7c4385762c2a0a/core.a(rtos.cpp.o)
 .debug_line    0x00000000000026fe      0x8cf /home/sean/.cache/arduino/sketches/828FCB417685B578D8734FE54D6C0719/../../cores/adafruit_nrf52_feather52832_834d5f6a6bc090e19e7c4385762c2a0a/core.a(AdaCallback.c.o)
 .debug_line    0x0000000000002fcd      0x8e9 /home/sean/.cache/arduino/sketches/828FCB417685B578D8734FE54D6C0719/../../cores/adafruit_nrf52_feather52832_834d5f6a6bc090e19e7c4385762c2a0a/core.a(wiring.c.o)
 .debug_line    0x00000000000038b6      0x772 /home/sean/.cache/arduino/sketches/828FCB417685B578D8734FE54D6C0719/../../cores/adafruit_nrf52_feather52832_834d5f6a6bc090e19e7c4385762c2a0a/core.a(wiring_digital.c.o)
 .debug_line    0x0000000000004028     0x1116 /home/sean/.cache/arduino/sketches/828FCB417685B578D8734FE54D6C0719/../../cores/adafruit_nrf52_feather52832_834d5f6a6bc090e19e7c4385762c2a0a/core.a(Uart.cpp.o)
 .debug_line    0x000000000000513e      0x6e4 /home/sean/.cache/arduino/sketches/828FCB417685B578D8734FE54D6C0719/../../cores/adafruit_nrf52_feather52832_834d5f6a6bc090e19e7c4385762c2a0a/core.a(heap_3.c.o)
 .debug_line    0x0000000000005822     0x2a8a /home/sean/.cache/arduino/sketches/828FCB417685B578D8734FE54D6C0719/../../cores/adafruit_nrf52_feather52832_834d5f6a6bc090e19e7c4385762c2a0a/core.a(queue.c.o)
 .debug_line    0x00000000000082ac     0x36a2 /home/sean/.cache/arduino/sketches/828FCB417685B578D8734FE54D6C0719/../../cores/adafruit_nrf52_feather52832_834d5f6a6bc090e19e7c4385762c2a0a/core.a(tasks.c.o)
 .debug_line    0x000000000000b94e      0xec8 /home/sean/.cache/arduino/sketches/828FCB417685B578D8734FE54D6C0719/../../cores/adafruit_nrf52_feather52832_834d5f6a6bc090e19e7c4385762c2a0a/core.a(timers.c.o)
 .debug_line    0x000000000000c816      0x4b8 /home/sean/.cache/arduino/sketches/828FCB417685B578D8734FE54D6C0719/../../cores/adafruit_nrf52_feather52832_834d5f6a6bc090e19e7c4385762c2a0a/core.a(port_cmsis.c.o)
 .debug_line    0x000000000000ccce      0xc30 /home/sean/.cache/arduino/sketches/828FCB417685B578D8734FE54D6C0719/../../cores/adafruit_nrf52_feather52832_834d5f6a6bc090e19e7c4385762c2a0a/core.a(port_cmsis_systick.c.o)
 .debug_line    0x000000000000d8fe      0x28b /home/sean/.cache/arduino/sketches/828FCB417685B578D8734FE54D6C0719/../../cores/adafruit_nrf52_feather52832_834d5f6a6bc090e19e7c4385762c2a0a/core.a(port.c.o)
 .debug_line    0x000000000000db89       0xc2 /home/sean/.cache/arduino/sketches/828FCB417685B578D8734FE54D6C0719/../../cores/adafruit_nrf52_feather52832_834d5f6a6bc090e19e7c4385762c2a0a/core.a(hooks.c.o)
 .debug_line    0x000000000000dc4b      0x3a5 /home/sean/.cache/arduino/sketches/828FCB417685B578D8734FE54D6C0719/../../cores/adafruit_nrf52_feather52832_834d5f6a6bc090e19e7c4385762c2a0a/core.a(RingBuffer.cpp.o)
 .debug_line    0x000000000000dff0      0x5e5 /home/sean/.cache/arduino/sketches/828FCB417685B578D8734FE54D6C0719/../../cores/adafruit_nrf52_feather52832_834d5f6a6bc090e19e7c4385762c2a0a/core.a(list.c.o)

.debug_str      0x0000000000000000     0x7b78
 .debug_str     0x0000000000000000      0x50e /home/sean/.cache/arduino/sketches/828FCB417685B578D8734FE54D6C0719/sketch/led.c.o
                                        0x559 (size before relaxing)
 .debug_str     0x000000000000050e     0x3314 /home/sean/.cache/arduino/sketches/828FCB417685B578D8734FE54D6C0719/sketch/macro-blues.ino.cpp.o
                                       0x36de (size before relaxing)
 .debug_str     0x0000000000003822       0x8f /home/sean/.cache/arduino/sketches/828FCB417685B578D8734FE54D6C0719/core/variant.cpp.o
                                        0x2f3 (size before relaxing)
 .debug_str     0x00000000000038b1       0x71 /home/sean/.cache/arduino/sketches/828FCB417685B578D8734FE54D6C0719/../../cores/adafruit_nrf52_feather52832_834d5f6a6bc090e19e7c4385762c2a0a/core.a(gcc_startup_nrf52.S.o)
                                         0x99 (size before relaxing)
 .debug_str     0x0000000000003922      0x218 /home/sean/.cache/arduino/sketches/828FCB417685B578D8734FE54D6C0719/../../cores/adafruit_nrf52_feather52832_834d5f6a6bc090e19e7c4385762c2a0a/core.a(main.cpp.o)
                                       0x38b6 (size before relaxing)
 .debug_str     0x0000000000003b3a      0x47e /home/sean/.cache/arduino/sketches/828FCB417685B578D8734FE54D6C0719/../../cores/adafruit_nrf52_feather52832_834d5f6a6bc090e19e7c4385762c2a0a/core.a(system_nrf52.c.o)
                                        0x72a (size before relaxing)
 .debug_str     0x0000000000003fb8      0x309 /home/sean/.cache/arduino/sketches/828FCB417685B578D8734FE54D6C0719/../../cores/adafruit_nrf52_feather52832_834d5f6a6bc090e19e7c4385762c2a0a/core.a(rtos.cpp.o)
                                       0x3a28 (size before relaxing)
 .debug_str     0x00000000000042c1      0x24c /home/sean/.cache/arduino/sketches/828FCB417685B578D8734FE54D6C0719/../../cores/adafruit_nrf52_feather52832_834d5f6a6bc090e19e7c4385762c2a0a/core.a(AdaCallback.c.o)
                                        0xa01 (size before relaxing)
 .debug_str     0x000000000000450d      0x999 /home/sean/.cache/arduino/sketches/828FCB417685B578D8734FE54D6C0719/../../cores/adafruit_nrf52_feather52832_834d5f6a6bc090e19e7c4385762c2a0a/core.a(wiring.c.o)
                                       0x15de (size before relaxing)
 .debug_str     0x0000000000004ea6       0x9e /home/sean/.cache/arduino/sketches/828FCB417685B578D8734FE54D6C0719/../../cores/adafruit_nrf52_feather52832_834d5f6a6bc090e19e7c4385762c2a0a/core.a(wiring_digital.c.o)
                                        0x7af (size before relaxing)
 .debug_str     0x0000000000004f44      0x779 /home/sean/.cache/arduino/sketches/828FCB417685B578D8734FE54D6C0719/../../cores/adafruit_nrf52_feather52832_834d5f6a6bc090e19e7c4385762c2a0a/core.a(Uart.cpp.o)
                                       0x433b (size before relaxing)
 .debug_str     0x00000000000056bd      0x163 /home/sean/.cache/arduino/sketches/828FCB417685B578D8734FE54D6C0719/../../cores/adafruit_nrf52_feather52832_834d5f6a6bc090e19e7c4385762c2a0a/core.a(heap_3.c.o)
                                        0x767 (size before relaxing)
 .debug_str     0x0000000000005820      0x89e /home/sean/.cache/arduino/sketches/828FCB417685B578D8734FE54D6C0719/../../cores/adafruit_nrf52_feather52832_834d5f6a6bc090e19e7c4385762c2a0a/core.a(queue.c.o)
                                       0x10c7 (size before relaxing)
 .debug_str     0x00000000000060be      0xd2f /home/sean/.cache/arduino/sketches/828FCB417685B578D8734FE54D6C0719/../../cores/adafruit_nrf52_feather52832_834d5f6a6bc090e19e7c4385762c2a0a/core.a(tasks.c.o)
                                       0x18ce (size before relaxing)
 .debug_str     0x0000000000006ded      0x5b1 /home/sean/.cache/arduino/sketches/828FCB417685B578D8734FE54D6C0719/../../cores/adafruit_nrf52_feather52832_834d5f6a6bc090e19e7c4385762c2a0a/core.a(timers.c.o)
                                       0x10a9 (size before relaxing)
 .debug_str     0x000000000000739e      0x139 /home/sean/.cache/arduino/sketches/828FCB417685B578D8734FE54D6C0719/../../cores/adafruit_nrf52_feather52832_834d5f6a6bc090e19e7c4385762c2a0a/core.a(port_cmsis.c.o)
                                        0x76f (size before relaxing)
 .debug_str     0x00000000000074d7      0x4a3 /home/sean/.cache/arduino/sketches/828FCB417685B578D8734FE54D6C0719/../../cores/adafruit_nrf52_feather52832_834d5f6a6bc090e19e7c4385762c2a0a/core.a(port_cmsis_systick.c.o)
                                       0x1162 (size before relaxing)
 .debug_str     0x000000000000797a       0x86 /home/sean/.cache/arduino/sketches/828FCB417685B578D8734FE54D6C0719/../../cores/adafruit_nrf52_feather52832_834d5f6a6bc090e19e7c4385762c2a0a/core.a(port.c.o)
                                        0x289 (size before relaxing)
 .debug_str     0x0000000000007a00       0x67 /home/sean/.cache/arduino/sketches/828FCB417685B578D8734FE54D6C0719/../../cores/adafruit_nrf52_feather52832_834d5f6a6bc090e19e7c4385762c2a0a/core.a(hooks.c.o)
                                        0x17e (size before relaxing)
 .debug_str     0x0000000000007a67       0x71 /home/sean/.cache/arduino/sketches/828FCB417685B578D8734FE54D6C0719/../../cores/adafruit_nrf52_feather52832_834d5f6a6bc090e19e7c4385762c2a0a/core.a(RingBuffer.cpp.o)
                                        0x806 (size before relaxing)
 .debug_str     0x0000000000007ad8       0xa0 /home/sean/.cache/arduino/sketches/828FCB417685B578D8734FE54D6C0719/../../cores/adafruit_nrf52_feather52832_834d5f6a6bc090e19e7c4385762c2a0a/core.a(list.c.o)
                                        0x773 (size before relaxing)

Cross Reference Table

Symbol                                            File
BusFault_Handler                                  /home/sean/.cache/arduino/sketches/828FCB417685B578D8734FE54D6C0719/../../cores/adafruit_nrf52_feather52832_834d5f6a6bc090e19e7c4385762c2a0a/core.a(gcc_startup_nrf52.S.o)
CCM_AAR_IRQHandler                                /home/sean/.cache/arduino/sketches/828FCB417685B578D8734FE54D6C0719/../../cores/adafruit_nrf52_feather52832_834d5f6a6bc090e19e7c4385762c2a0a/core.a(gcc_startup_nrf52.S.o)
COMP_LPCOMP_IRQHandler                            /home/sean/.cache/arduino/sketches/828FCB417685B578D8734FE54D6C0719/../../cores/adafruit_nrf52_feather52832_834d5f6a6bc090e19e7c4385762c2a0a/core.a(gcc_startup_nrf52.S.o)
DebugMon_Handler                                  /home/sean/.cache/arduino/sketches/828FCB417685B578D8734FE54D6C0719/../../cores/adafruit_nrf52_feather52832_834d5f6a6bc090e19e7c4385762c2a0a/core.a(gcc_startup_nrf52.S.o)
Default_Handler                                   /home/sean/.cache/arduino/sketches/828FCB417685B578D8734FE54D6C0719/../../cores/adafruit_nrf52_feather52832_834d5f6a6bc090e19e7c4385762c2a0a/core.a(gcc_startup_nrf52.S.o)
ECB_IRQHandler                                    /home/sean/.cache/arduino/sketches/828FCB417685B578D8734FE54D6C0719/../../cores/adafruit_nrf52_feather52832_834d5f6a6bc090e19e7c4385762c2a0a/core.a(gcc_startup_nrf52.S.o)
FPU_IRQHandler                                    /home/sean/.cache/arduino/sketches/828FCB417685B578D8734FE54D6C0719/../../cores/adafruit_nrf52_feather52832_834d5f6a6bc090e19e7c4385762c2a0a/core.a(gcc_startup_nrf52.S.o)
GPIOTE_IRQHandler                                 /home/sean/.cache/arduino/sketches/828FCB417685B578D8734FE54D6C0719/../../cores/adafruit_nrf52_feather52832_834d5f6a6bc090e19e7c4385762c2a0a/core.a(gcc_startup_nrf52.S.o)
HardFault_Handler                                 /home/sean/.cache/arduino/sketches/828FCB417685B578D8734FE54D6C0719/../../cores/adafruit_nrf52_feather52832_834d5f6a6bc090e19e7c4385762c2a0a/core.a(gcc_startup_nrf52.S.o)
I2S_IRQHandler                                    /home/sean/.cache/arduino/sketches/828FCB417685B578D8734FE54D6C0719/../../cores/adafruit_nrf52_feather52832_834d5f6a6bc090e19e7c4385762c2a0a/core.a(gcc_startup_nrf52.S.o)
MWU_IRQHandler                                    /home/sean/.cache/arduino/sketches/828FCB417685B578D8734FE54D6C0719/../../cores/adafruit_nrf52_feather52832_834d5f6a6bc090e19e7c4385762c2a0a/core.a(gcc_startup_nrf52.S.o)
MemoryManagement_Handler                          /home/sean/.cache/arduino/sketches/828FCB417685B578D8734FE54D6C0719/../../cores/adafruit_nrf52_feather52832_834d5f6a6bc090e19e7c4385762c2a0a/core.a(gcc_startup_nrf52.S.o)
NFCT_IRQHandler                                   /home/sean/.cache/arduino/sketches/828FCB417685B578D8734FE54D6C0719/../../cores/adafruit_nrf52_feather52832_834d5f6a6bc090e19e7c4385762c2a0a/core.a(gcc_startup_nrf52.S.o)
NMI_Handler                                       /home/sean/.cache/arduino/sketches/828FCB417685B578D8734FE54D6C0719/../../cores/adafruit_nrf52_feather52832_834d5f6a6bc090e19e7c4385762c2a0a/core.a(gcc_startup_nrf52.S.o)
PDM_IRQHandler                                    /home/sean/.cache/arduino/sketches/828FCB417685B578D8734FE54D6C0719/../../cores/adafruit_nrf52_feather52832_834d5f6a6bc090e19e7c4385762c2a0a/core.a(gcc_startup_nrf52.S.o)
POWER_CLOCK_IRQHandler                            /home/sean/.cache/arduino/sketches/828FCB417685B578D8734FE54D6C0719/../../cores/adafruit_nrf52_feather52832_834d5f6a6bc090e19e7c4385762c2a0a/core.a(gcc_startup_nrf52.S.o)
PWM0_IRQHandler                                   /home/sean/.cache/arduino/sketches/828FCB417685B578D8734FE54D6C0719/../../cores/adafruit_nrf52_feather52832_834d5f6a6bc090e19e7c4385762c2a0a/core.a(gcc_startup_nrf52.S.o)
PWM1_IRQHandler                                   /home/sean/.cache/arduino/sketches/828FCB417685B578D8734FE54D6C0719/../../cores/adafruit_nrf52_feather52832_834d5f6a6bc090e19e7c4385762c2a0a/core.a(gcc_startup_nrf52.S.o)
PWM2_IRQHandler                                   /home/sean/.cache/arduino/sketches/828FCB417685B578D8734FE54D6C0719/../../cores/adafruit_nrf52_feather52832_834d5f6a6bc090e19e7c4385762c2a0a/core.a(gcc_startup_nrf52.S.o)
PendSV_Handler                                    /home/sean/.cache/arduino/sketches/828FCB417685B578D8734FE54D6C0719/../../cores/adafruit_nrf52_feather52832_834d5f6a6bc090e19e7c4385762c2a0a/core.a(port.c.o)
                                                  /home/sean/.cache/arduino/sketches/828FCB417685B578D8734FE54D6C0719/../../cores/adafruit_nrf52_feather52832_834d5f6a6bc090e19e7c4385762c2a0a/core.a(gcc_startup_nrf52.S.o)
QDEC_IRQHandler                                   /home/sean/.cache/arduino/sketches/828FCB417685B578D8734FE54D6C0719/../../cores/adafruit_nrf52_feather52832_834d5f6a6bc090e19e7c4385762c2a0a/core.a(gcc_startup_nrf52.S.o)
RADIO_IRQHandler                                  /home/sean/.cache/arduino/sketches/828FCB417685B578D8734FE54D6C0719/../../cores/adafruit_nrf52_feather52832_834d5f6a6bc090e19e7c4385762c2a0a/core.a(gcc_startup_nrf52.S.o)
RNG_IRQHandler                                    /home/sean/.cache/arduino/sketches/828FCB417685B578D8734FE54D6C0719/../../cores/adafruit_nrf52_feather52832_834d5f6a6bc090e19e7c4385762c2a0a/core.a(gcc_startup_nrf52.S.o)
RTC0_IRQHandler                                   /home/sean/.cache/arduino/sketches/828FCB417685B578D8734FE54D6C0719/../../cores/adafruit_nrf52_feather52832_834d5f6a6bc090e19e7c4385762c2a0a/core.a(gcc_startup_nrf52.S.o)
RTC1_IRQHandler                                   /home/sean/.cache/arduino/sketches/828FCB417685B578D8734FE54D6C0719/../../cores/adafruit_nrf52_feather52832_834d5f6a6bc090e19e7c4385762c2a0a/core.a(port_cmsis_systick.c.o)
                                                  /home/sean/.cache/arduino/sketches/828FCB417685B578D8734FE54D6C0719/../../cores/adafruit_nrf52_feather52832_834d5f6a6bc090e19e7c4385762c2a0a/core.a(gcc_startup_nrf52.S.o)
RTC2_IRQHandler                                   /home/sean/.cache/arduino/sketches/828FCB417685B578D8734FE54D6C0719/../../cores/adafruit_nrf52_feather52832_834d5f6a6bc090e19e7c4385762c2a0a/core.a(gcc_startup_nrf52.S.o)
Reset_Handler                                     /home/sean/.cache/arduino/sketches/828FCB417685B578D8734FE54D6C0719/../../cores/adafruit_nrf52_feather52832_834d5f6a6bc090e19e7c4385762c2a0a/core.a(gcc_startup_nrf52.S.o)
RingBuffer::RingBuffer()                          /home/sean/.cache/arduino/sketches/828FCB417685B578D8734FE54D6C0719/../../cores/adafruit_nrf52_feather52832_834d5f6a6bc090e19e7c4385762c2a0a/core.a(RingBuffer.cpp.o)
                                                  /home/sean/.cache/arduino/sketches/828FCB417685B578D8734FE54D6C0719/../../cores/adafruit_nrf52_feather52832_834d5f6a6bc090e19e7c4385762c2a0a/core.a(Uart.cpp.o)
RingBuffer::RingBuffer()                          /home/sean/.cache/arduino/sketches/828FCB417685B578D8734FE54D6C0719/../../cores/adafruit_nrf52_feather52832_834d5f6a6bc090e19e7c4385762c2a0a/core.a(RingBuffer.cpp.o)
RingBuffer::available()                           /home/sean/.cache/arduino/sketches/828FCB417685B578D8734FE54D6C0719/../../cores/adafruit_nrf52_feather52832_834d5f6a6bc090e19e7c4385762c2a0a/core.a(RingBuffer.cpp.o)
                                                  /home/sean/.cache/arduino/sketches/828FCB417685B578D8734FE54D6C0719/../../cores/adafruit_nrf52_feather52832_834d5f6a6bc090e19e7c4385762c2a0a/core.a(Uart.cpp.o)
RingBuffer::availableForStore()                   /home/sean/.cache/arduino/sketches/828FCB417685B578D8734FE54D6C0719/../../cores/adafruit_nrf52_feather52832_834d5f6a6bc090e19e7c4385762c2a0a/core.a(RingBuffer.cpp.o)
RingBuffer::clear()                               /home/sean/.cache/arduino/sketches/828FCB417685B578D8734FE54D6C0719/../../cores/adafruit_nrf52_feather52832_834d5f6a6bc090e19e7c4385762c2a0a/core.a(RingBuffer.cpp.o)
                                                  /home/sean/.cache/arduino/sketches/828FCB417685B578D8734FE54D6C0719/../../cores/adafruit_nrf52_feather52832_834d5f6a6bc090e19e7c4385762c2a0a/core.a(Uart.cpp.o)
RingBuffer::isFull()                              /home/sean/.cache/arduino/sketches/828FCB417685B578D8734FE54D6C0719/../../cores/adafruit_nrf52_feather52832_834d5f6a6bc090e19e7c4385762c2a0a/core.a(RingBuffer.cpp.o)
RingBuffer::nextIndex(int)                        /home/sean/.cache/arduino/sketches/828FCB417685B578D8734FE54D6C0719/../../cores/adafruit_nrf52_feather52832_834d5f6a6bc090e19e7c4385762c2a0a/core.a(RingBuffer.cpp.o)
RingBuffer::peek()                                /home/sean/.cache/arduino/sketches/828FCB417685B578D8734FE54D6C0719/../../cores/adafruit_nrf52_feather52832_834d5f6a6bc090e19e7c4385762c2a0a/core.a(RingBuffer.cpp.o)
                                                  /home/sean/.cache/arduino/sketches/828FCB417685B578D8734FE54D6C0719/../../cores/adafruit_nrf52_feather52832_834d5f6a6bc090e19e7c4385762c2a0a/core.a(Uart.cpp.o)
RingBuffer::read_char()                           /home/sean/.cache/arduino/sketches/828FCB417685B578D8734FE54D6C0719/../../cores/adafruit_nrf52_feather52832_834d5f6a6bc090e19e7c4385762c2a0a/core.a(RingBuffer.cpp.o)
                                                  /home/sean/.cache/arduino/sketches/828FCB417685B578D8734FE54D6C0719/../../cores/adafruit_nrf52_feather52832_834d5f6a6bc090e19e7c4385762c2a0a/core.a(Uart.cpp.o)
RingBuffer::store_char(unsigned char)             /home/sean/.cache/arduino/sketches/828FCB417685B578D8734FE54D6C0719/../../cores/adafruit_nrf52_feather52832_834d5f6a6bc090e19e7c4385762c2a0a/core.a(RingBuffer.cpp.o)
                                                  /home/sean/.cache/arduino/sketches/828FCB417685B578D8734FE54D6C0719/../../cores/adafruit_nrf52_feather52832_834d5f6a6bc090e19e7c4385762c2a0a/core.a(Uart.cpp.o)
SAADC_IRQHandler                                  /home/sean/.cache/arduino/sketches/828FCB417685B578D8734FE54D6C0719/../../cores/adafruit_nrf52_feather52832_834d5f6a6bc090e19e7c4385762c2a0a/core.a(gcc_startup_nrf52.S.o)
SPIM0_SPIS0_TWIM0_TWIS0_SPI0_TWI0_IRQHandler      /home/sean/.cache/arduino/sketches/828FCB417685B578D8734FE54D6C0719/../../cores/adafruit_nrf52_feather52832_834d5f6a6bc090e19e7c4385762c2a0a/core.a(gcc_startup_nrf52.S.o)
SPIM1_SPIS1_TWIM1_TWIS1_SPI1_TWI1_IRQHandler      /home/sean/.cache/arduino/sketches/828FCB417685B578D8734FE54D6C0719/../../cores/adafruit_nrf52_feather52832_834d5f6a6bc090e19e7c4385762c2a0a/core.a(gcc_startup_nrf52.S.o)
SPIM2_SPIS2_SPI2_IRQHandler                       /home/sean/.cache/arduino/sketches/828FCB417685B578D8734FE54D6C0719/../../cores/adafruit_nrf52_feather52832_834d5f6a6bc090e19e7c4385762c2a0a/core.a(gcc_startup_nrf52.S.o)
SVC_Handler                                       /home/sean/.cache/arduino/sketches/828FCB417685B578D8734FE54D6C0719/../../cores/adafruit_nrf52_feather52832_834d5f6a6bc090e19e7c4385762c2a0a/core.a(port.c.o)
                                                  /home/sean/.cache/arduino/sketches/828FCB417685B578D8734FE54D6C0719/../../cores/adafruit_nrf52_feather52832_834d5f6a6bc090e19e7c4385762c2a0a/core.a(gcc_startup_nrf52.S.o)
SWI0_EGU0_IRQHandler                              /home/sean/.cache/arduino/sketches/828FCB417685B578D8734FE54D6C0719/../../cores/adafruit_nrf52_feather52832_834d5f6a6bc090e19e7c4385762c2a0a/core.a(gcc_startup_nrf52.S.o)
SWI1_EGU1_IRQHandler                              /home/sean/.cache/arduino/sketches/828FCB417685B578D8734FE54D6C0719/../../cores/adafruit_nrf52_feather52832_834d5f6a6bc090e19e7c4385762c2a0a/core.a(gcc_startup_nrf52.S.o)
SWI2_EGU2_IRQHandler                              /home/sean/.cache/arduino/sketches/828FCB417685B578D8734FE54D6C0719/../../cores/adafruit_nrf52_feather52832_834d5f6a6bc090e19e7c4385762c2a0a/core.a(gcc_startup_nrf52.S.o)
SWI3_EGU3_IRQHandler                              /home/sean/.cache/arduino/sketches/828FCB417685B578D8734FE54D6C0719/../../cores/adafruit_nrf52_feather52832_834d5f6a6bc090e19e7c4385762c2a0a/core.a(gcc_startup_nrf52.S.o)
SWI4_EGU4_IRQHandler                              /home/sean/.cache/arduino/sketches/828FCB417685B578D8734FE54D6C0719/../../cores/adafruit_nrf52_feather52832_834d5f6a6bc090e19e7c4385762c2a0a/core.a(gcc_startup_nrf52.S.o)
SWI5_EGU5_IRQHandler                              /home/sean/.cache/arduino/sketches/828FCB417685B578D8734FE54D6C0719/../../cores/adafruit_nrf52_feather52832_834d5f6a6bc090e19e7c4385762c2a0a/core.a(gcc_startup_nrf52.S.o)
Scheduler                                         /home/sean/.cache/arduino/sketches/828FCB417685B578D8734FE54D6C0719/../../cores/adafruit_nrf52_feather52832_834d5f6a6bc090e19e7c4385762c2a0a/core.a(rtos.cpp.o)
SchedulerRTOS::SchedulerRTOS()                    /home/sean/.cache/arduino/sketches/828FCB417685B578D8734FE54D6C0719/../../cores/adafruit_nrf52_feather52832_834d5f6a6bc090e19e7c4385762c2a0a/core.a(rtos.cpp.o)
SchedulerRTOS::SchedulerRTOS()                    /home/sean/.cache/arduino/sketches/828FCB417685B578D8734FE54D6C0719/../../cores/adafruit_nrf52_feather52832_834d5f6a6bc090e19e7c4385762c2a0a/core.a(rtos.cpp.o)
SchedulerRTOS::startLoop(void (*)(), unsigned long, unsigned long, char const*) /home/sean/.cache/arduino/sketches/828FCB417685B578D8734FE54D6C0719/../../cores/adafruit_nrf52_feather52832_834d5f6a6bc090e19e7c4385762c2a0a/core.a(rtos.cpp.o)
Serial                                            /home/sean/.cache/arduino/sketches/828FCB417685B578D8734FE54D6C0719/../../cores/adafruit_nrf52_feather52832_834d5f6a6bc090e19e7c4385762c2a0a/core.a(Uart.cpp.o)
                                                  /home/sean/.cache/arduino/sketches/828FCB417685B578D8734FE54D6C0719/../../cores/adafruit_nrf52_feather52832_834d5f6a6bc090e19e7c4385762c2a0a/core.a(main.cpp.o)
SysTick_Handler                                   /home/sean/.cache/arduino/sketches/828FCB417685B578D8734FE54D6C0719/../../cores/adafruit_nrf52_feather52832_834d5f6a6bc090e19e7c4385762c2a0a/core.a(gcc_startup_nrf52.S.o)
SystemCoreClock                                   /home/sean/.cache/arduino/sketches/828FCB417685B578D8734FE54D6C0719/../../cores/adafruit_nrf52_feather52832_834d5f6a6bc090e19e7c4385762c2a0a/core.a(system_nrf52.c.o)
SystemCoreClockUpdate                             /home/sean/.cache/arduino/sketches/828FCB417685B578D8734FE54D6C0719/../../cores/adafruit_nrf52_feather52832_834d5f6a6bc090e19e7c4385762c2a0a/core.a(system_nrf52.c.o)
SystemInit                                        /home/sean/.cache/arduino/sketches/828FCB417685B578D8734FE54D6C0719/../../cores/adafruit_nrf52_feather52832_834d5f6a6bc090e19e7c4385762c2a0a/core.a(system_nrf52.c.o)
                                                  /home/sean/.cache/arduino/sketches/828FCB417685B578D8734FE54D6C0719/../../cores/adafruit_nrf52_feather52832_834d5f6a6bc090e19e7c4385762c2a0a/core.a(gcc_startup_nrf52.S.o)
TEMP_IRQHandler                                   /home/sean/.cache/arduino/sketches/828FCB417685B578D8734FE54D6C0719/../../cores/adafruit_nrf52_feather52832_834d5f6a6bc090e19e7c4385762c2a0a/core.a(gcc_startup_nrf52.S.o)
TIMER0_IRQHandler                                 /home/sean/.cache/arduino/sketches/828FCB417685B578D8734FE54D6C0719/../../cores/adafruit_nrf52_feather52832_834d5f6a6bc090e19e7c4385762c2a0a/core.a(gcc_startup_nrf52.S.o)
TIMER1_IRQHandler                                 /home/sean/.cache/arduino/sketches/828FCB417685B578D8734FE54D6C0719/../../cores/adafruit_nrf52_feather52832_834d5f6a6bc090e19e7c4385762c2a0a/core.a(gcc_startup_nrf52.S.o)
TIMER2_IRQHandler                                 /home/sean/.cache/arduino/sketches/828FCB417685B578D8734FE54D6C0719/../../cores/adafruit_nrf52_feather52832_834d5f6a6bc090e19e7c4385762c2a0a/core.a(gcc_startup_nrf52.S.o)
TIMER3_IRQHandler                                 /home/sean/.cache/arduino/sketches/828FCB417685B578D8734FE54D6C0719/../../cores/adafruit_nrf52_feather52832_834d5f6a6bc090e19e7c4385762c2a0a/core.a(gcc_startup_nrf52.S.o)
TIMER4_IRQHandler                                 /home/sean/.cache/arduino/sketches/828FCB417685B578D8734FE54D6C0719/../../cores/adafruit_nrf52_feather52832_834d5f6a6bc090e19e7c4385762c2a0a/core.a(gcc_startup_nrf52.S.o)
UARTE0_UART0_IRQHandler                           /home/sean/.cache/arduino/sketches/828FCB417685B578D8734FE54D6C0719/../../cores/adafruit_nrf52_feather52832_834d5f6a6bc090e19e7c4385762c2a0a/core.a(Uart.cpp.o)
                                                  /home/sean/.cache/arduino/sketches/828FCB417685B578D8734FE54D6C0719/../../cores/adafruit_nrf52_feather52832_834d5f6a6bc090e19e7c4385762c2a0a/core.a(gcc_startup_nrf52.S.o)
Uart::IrqHandler()                                /home/sean/.cache/arduino/sketches/828FCB417685B578D8734FE54D6C0719/../../cores/adafruit_nrf52_feather52832_834d5f6a6bc090e19e7c4385762c2a0a/core.a(Uart.cpp.o)
Uart::Uart(NRF_UARTE_Type*, IRQn_Type, unsigned char, unsigned char) /home/sean/.cache/arduino/sketches/828FCB417685B578D8734FE54D6C0719/../../cores/adafruit_nrf52_feather52832_834d5f6a6bc090e19e7c4385762c2a0a/core.a(Uart.cpp.o)
Uart::Uart(NRF_UARTE_Type*, IRQn_Type, unsigned char, unsigned char) /home/sean/.cache/arduino/sketches/828FCB417685B578D8734FE54D6C0719/../../cores/adafruit_nrf52_feather52832_834d5f6a6bc090e19e7c4385762c2a0a/core.a(Uart.cpp.o)
Uart::Uart(NRF_UARTE_Type*, IRQn_Type, unsigned char, unsigned char, unsigned char, unsigned char) /home/sean/.cache/arduino/sketches/828FCB417685B578D8734FE54D6C0719/../../cores/adafruit_nrf52_feather52832_834d5f6a6bc090e19e7c4385762c2a0a/core.a(Uart.cpp.o)
Uart::Uart(NRF_UARTE_Type*, IRQn_Type, unsigned char, unsigned char, unsigned char, unsigned char) /home/sean/.cache/arduino/sketches/828FCB417685B578D8734FE54D6C0719/../../cores/adafruit_nrf52_feather52832_834d5f6a6bc090e19e7c4385762c2a0a/core.a(Uart.cpp.o)
Uart::available()                                 /home/sean/.cache/arduino/sketches/828FCB417685B578D8734FE54D6C0719/../../cores/adafruit_nrf52_feather52832_834d5f6a6bc090e19e7c4385762c2a0a/core.a(Uart.cpp.o)
Uart::availableForWrite()                         /home/sean/.cache/arduino/sketches/828FCB417685B578D8734FE54D6C0719/../../cores/adafruit_nrf52_feather52832_834d5f6a6bc090e19e7c4385762c2a0a/core.a(Uart.cpp.o)
Uart::begin(unsigned long)                        /home/sean/.cache/arduino/sketches/828FCB417685B578D8734FE54D6C0719/../../cores/adafruit_nrf52_feather52832_834d5f6a6bc090e19e7c4385762c2a0a/core.a(Uart.cpp.o)
Uart::begin(unsigned long, unsigned short)        /home/sean/.cache/arduino/sketches/828FCB417685B578D8734FE54D6C0719/../../cores/adafruit_nrf52_feather52832_834d5f6a6bc090e19e7c4385762c2a0a/core.a(Uart.cpp.o)
Uart::end()                                       /home/sean/.cache/arduino/sketches/828FCB417685B578D8734FE54D6C0719/../../cores/adafruit_nrf52_feather52832_834d5f6a6bc090e19e7c4385762c2a0a/core.a(Uart.cpp.o)
Uart::flush()                                     /home/sean/.cache/arduino/sketches/828FCB417685B578D8734FE54D6C0719/../../cores/adafruit_nrf52_feather52832_834d5f6a6bc090e19e7c4385762c2a0a/core.a(Uart.cpp.o)
Uart::operator bool()                             /home/sean/.cache/arduino/sketches/828FCB417685B578D8734FE54D6C0719/../../cores/adafruit_nrf52_feather52832_834d5f6a6bc090e19e7c4385762c2a0a/core.a(Uart.cpp.o)
Uart::peek()                                      /home/sean/.cache/arduino/sketches/828FCB417685B578D8734FE54D6C0719/../../cores/adafruit_nrf52_feather52832_834d5f6a6bc090e19e7c4385762c2a0a/core.a(Uart.cpp.o)
Uart::read()                                      /home/sean/.cache/arduino/sketches/828FCB417685B578D8734FE54D6C0719/../../cores/adafruit_nrf52_feather52832_834d5f6a6bc090e19e7c4385762c2a0a/core.a(Uart.cpp.o)
Uart::setPins(unsigned char, unsigned char)       /home/sean/.cache/arduino/sketches/828FCB417685B578D8734FE54D6C0719/../../cores/adafruit_nrf52_feather52832_834d5f6a6bc090e19e7c4385762c2a0a/core.a(Uart.cpp.o)
Uart::write(unsigned char const*, unsigned int)   /home/sean/.cache/arduino/sketches/828FCB417685B578D8734FE54D6C0719/../../cores/adafruit_nrf52_feather52832_834d5f6a6bc090e19e7c4385762c2a0a/core.a(Uart.cpp.o)
                                                  /home/sean/.cache/arduino/sketches/828FCB417685B578D8734FE54D6C0719/../../cores/adafruit_nrf52_feather52832_834d5f6a6bc090e19e7c4385762c2a0a/core.a(main.cpp.o)
Uart::write(unsigned char)                        /home/sean/.cache/arduino/sketches/828FCB417685B578D8734FE54D6C0719/../../cores/adafruit_nrf52_feather52832_834d5f6a6bc090e19e7c4385762c2a0a/core.a(Uart.cpp.o)
UsageFault_Handler                                /home/sean/.cache/arduino/sketches/828FCB417685B578D8734FE54D6C0719/../../cores/adafruit_nrf52_feather52832_834d5f6a6bc090e19e7c4385762c2a0a/core.a(gcc_startup_nrf52.S.o)
WDT_IRQHandler                                    /home/sean/.cache/arduino/sketches/828FCB417685B578D8734FE54D6C0719/../../cores/adafruit_nrf52_feather52832_834d5f6a6bc090e19e7c4385762c2a0a/core.a(gcc_startup_nrf52.S.o)
_Balloc                                           /home/sean/.arduino15/packages/adafruit/tools/arm-none-eabi-gcc/9-2019q4/bin/../lib/gcc/arm-none-eabi/9.2.1/../../../../arm-none-eabi/lib/thumb/v7e-m+fp/hard/libc.a(lib_a-mprec.o)
                                                  /home/sean/.arduino15/packages/adafruit/tools/arm-none-eabi-gcc/9-2019q4/bin/../lib/gcc/arm-none-eabi/9.2.1/../../../../arm-none-eabi/lib/thumb/v7e-m+fp/hard/libc.a(lib_a-dtoa.o)
_Bfree                                            /home/sean/.arduino15/packages/adafruit/tools/arm-none-eabi-gcc/9-2019q4/bin/../lib/gcc/arm-none-eabi/9.2.1/../../../../arm-none-eabi/lib/thumb/v7e-m+fp/hard/libc.a(lib_a-mprec.o)
                                                  /home/sean/.arduino15/packages/adafruit/tools/arm-none-eabi-gcc/9-2019q4/bin/../lib/gcc/arm-none-eabi/9.2.1/../../../../arm-none-eabi/lib/thumb/v7e-m+fp/hard/libc.a(lib_a-dtoa.o)
_PathLocale                                       /home/sean/.arduino15/packages/adafruit/tools/arm-none-eabi-gcc/9-2019q4/bin/../lib/gcc/arm-none-eabi/9.2.1/../../../../arm-none-eabi/lib/thumb/v7e-m+fp/hard/libc.a(lib_a-locale.o)
__StackLimit                                      /home/sean/.cache/arduino/sketches/828FCB417685B578D8734FE54D6C0719/../../cores/adafruit_nrf52_feather52832_834d5f6a6bc090e19e7c4385762c2a0a/core.a(gcc_startup_nrf52.S.o)
__StackSize                                       /home/sean/.cache/arduino/sketches/828FCB417685B578D8734FE54D6C0719/../../cores/adafruit_nrf52_feather52832_834d5f6a6bc090e19e7c4385762c2a0a/core.a(gcc_startup_nrf52.S.o)
__StackTop                                        /home/sean/.cache/arduino/sketches/828FCB417685B578D8734FE54D6C0719/../../cores/adafruit_nrf52_feather52832_834d5f6a6bc090e19e7c4385762c2a0a/core.a(gcc_startup_nrf52.S.o)
__adddf3                                          /home/sean/.arduino15/packages/adafruit/tools/arm-none-eabi-gcc/9-2019q4/bin/../lib/gcc/arm-none-eabi/9.2.1/thumb/v7e-m+fp/hard/libgcc.a(_arm_addsubdf3.o)
__aeabi_cdcmpeq                                   /home/sean/.arduino15/packages/adafruit/tools/arm-none-eabi-gcc/9-2019q4/bin/../lib/gcc/arm-none-eabi/9.2.1/thumb/v7e-m+fp/hard/libgcc.a(_arm_cmpdf2.o)
__aeabi_cdcmple                                   /home/sean/.arduino15/packages/adafruit/tools/arm-none-eabi-gcc/9-2019q4/bin/../lib/gcc/arm-none-eabi/9.2.1/thumb/v7e-m+fp/hard/libgcc.a(_arm_cmpdf2.o)
__aeabi_cdrcmple                                  /home/sean/.arduino15/packages/adafruit/tools/arm-none-eabi-gcc/9-2019q4/bin/../lib/gcc/arm-none-eabi/9.2.1/thumb/v7e-m+fp/hard/libgcc.a(_arm_cmpdf2.o)
__aeabi_d2iz                                      /home/sean/.arduino15/packages/adafruit/tools/arm-none-eabi-gcc/9-2019q4/bin/../lib/gcc/arm-none-eabi/9.2.1/thumb/v7e-m+fp/hard/libgcc.a(_arm_fixdfsi.o)
                                                  /home/sean/.arduino15/packages/adafruit/tools/arm-none-eabi-gcc/9-2019q4/bin/../lib/gcc/arm-none-eabi/9.2.1/../../../../arm-none-eabi/lib/thumb/v7e-m+fp/hard/libc.a(lib_a-dtoa.o)
                                                  /home/sean/.arduino15/packages/adafruit/tools/arm-none-eabi-gcc/9-2019q4/bin/../lib/gcc/arm-none-eabi/9.2.1/../../../../arm-none-eabi/lib/thumb/v7e-m+fp/hard/libc.a(lib_a-svfprintf.o)
__aeabi_dadd                                      /home/sean/.arduino15/packages/adafruit/tools/arm-none-eabi-gcc/9-2019q4/bin/../lib/gcc/arm-none-eabi/9.2.1/thumb/v7e-m+fp/hard/libgcc.a(_arm_addsubdf3.o)
                                                  /home/sean/.arduino15/packages/adafruit/tools/arm-none-eabi-gcc/9-2019q4/bin/../lib/gcc/arm-none-eabi/9.2.1/../../../../arm-none-eabi/lib/thumb/v7e-m+fp/hard/libc.a(lib_a-dtoa.o)
__aeabi_dcmpeq                                    /home/sean/.arduino15/packages/adafruit/tools/arm-none-eabi-gcc/9-2019q4/bin/../lib/gcc/arm-none-eabi/9.2.1/thumb/v7e-m+fp/hard/libgcc.a(_arm_cmpdf2.o)
                                                  /home/sean/.arduino15/packages/adafruit/tools/arm-none-eabi-gcc/9-2019q4/bin/../lib/gcc/arm-none-eabi/9.2.1/../../../../arm-none-eabi/lib/thumb/v7e-m+fp/hard/libc.a(lib_a-dtoa.o)
                                                  /home/sean/.arduino15/packages/adafruit/tools/arm-none-eabi-gcc/9-2019q4/bin/../lib/gcc/arm-none-eabi/9.2.1/../../../../arm-none-eabi/lib/thumb/v7e-m+fp/hard/libc.a(lib_a-svfprintf.o)
__aeabi_dcmpge                                    /home/sean/.arduino15/packages/adafruit/tools/arm-none-eabi-gcc/9-2019q4/bin/../lib/gcc/arm-none-eabi/9.2.1/thumb/v7e-m+fp/hard/libgcc.a(_arm_cmpdf2.o)
__aeabi_dcmpgt                                    /home/sean/.arduino15/packages/adafruit/tools/arm-none-eabi-gcc/9-2019q4/bin/../lib/gcc/arm-none-eabi/9.2.1/thumb/v7e-m+fp/hard/libgcc.a(_arm_cmpdf2.o)
                                                  /home/sean/.arduino15/packages/adafruit/tools/arm-none-eabi-gcc/9-2019q4/bin/../lib/gcc/arm-none-eabi/9.2.1/../../../../arm-none-eabi/lib/thumb/v7e-m+fp/hard/libc.a(lib_a-dtoa.o)
                                                  /home/sean/.arduino15/packages/adafruit/tools/arm-none-eabi-gcc/9-2019q4/bin/../lib/gcc/arm-none-eabi/9.2.1/../../../../arm-none-eabi/lib/thumb/v7e-m+fp/hard/libc.a(lib_a-svfprintf.o)
__aeabi_dcmple                                    /home/sean/.arduino15/packages/adafruit/tools/arm-none-eabi-gcc/9-2019q4/bin/../lib/gcc/arm-none-eabi/9.2.1/thumb/v7e-m+fp/hard/libgcc.a(_arm_cmpdf2.o)
                                                  /home/sean/.arduino15/packages/adafruit/tools/arm-none-eabi-gcc/9-2019q4/bin/../lib/gcc/arm-none-eabi/9.2.1/../../../../arm-none-eabi/lib/thumb/v7e-m+fp/hard/libc.a(lib_a-dtoa.o)
                                                  /home/sean/.arduino15/packages/adafruit/tools/arm-none-eabi-gcc/9-2019q4/bin/../lib/gcc/arm-none-eabi/9.2.1/../../../../arm-none-eabi/lib/thumb/v7e-m+fp/hard/libc.a(lib_a-svfprintf.o)
__aeabi_dcmplt                                    /home/sean/.arduino15/packages/adafruit/tools/arm-none-eabi-gcc/9-2019q4/bin/../lib/gcc/arm-none-eabi/9.2.1/thumb/v7e-m+fp/hard/libgcc.a(_arm_cmpdf2.o)
                                                  /home/sean/.arduino15/packages/adafruit/tools/arm-none-eabi-gcc/9-2019q4/bin/../lib/gcc/arm-none-eabi/9.2.1/../../../../arm-none-eabi/lib/thumb/v7e-m+fp/hard/libc.a(lib_a-dtoa.o)
                                                  /home/sean/.arduino15/packages/adafruit/tools/arm-none-eabi-gcc/9-2019q4/bin/../lib/gcc/arm-none-eabi/9.2.1/../../../../arm-none-eabi/lib/thumb/v7e-m+fp/hard/libc.a(lib_a-svfprintf.o)
__aeabi_dcmpun                                    /home/sean/.arduino15/packages/adafruit/tools/arm-none-eabi-gcc/9-2019q4/bin/../lib/gcc/arm-none-eabi/9.2.1/thumb/v7e-m+fp/hard/libgcc.a(_arm_unorddf2.o)
                                                  /home/sean/.arduino15/packages/adafruit/tools/arm-none-eabi-gcc/9-2019q4/bin/../lib/gcc/arm-none-eabi/9.2.1/../../../../arm-none-eabi/lib/thumb/v7e-m+fp/hard/libc.a(lib_a-svfprintf.o)
__aeabi_ddiv                                      /home/sean/.arduino15/packages/adafruit/tools/arm-none-eabi-gcc/9-2019q4/bin/../lib/gcc/arm-none-eabi/9.2.1/thumb/v7e-m+fp/hard/libgcc.a(_arm_muldivdf3.o)
                                                  /home/sean/.arduino15/packages/adafruit/tools/arm-none-eabi-gcc/9-2019q4/bin/../lib/gcc/arm-none-eabi/9.2.1/../../../../arm-none-eabi/lib/thumb/v7e-m+fp/hard/libc.a(lib_a-mprec.o)
                                                  /home/sean/.arduino15/packages/adafruit/tools/arm-none-eabi-gcc/9-2019q4/bin/../lib/gcc/arm-none-eabi/9.2.1/../../../../arm-none-eabi/lib/thumb/v7e-m+fp/hard/libc.a(lib_a-dtoa.o)
__aeabi_dmul                                      /home/sean/.arduino15/packages/adafruit/tools/arm-none-eabi-gcc/9-2019q4/bin/../lib/gcc/arm-none-eabi/9.2.1/thumb/v7e-m+fp/hard/libgcc.a(_arm_muldivdf3.o)
                                                  /home/sean/.arduino15/packages/adafruit/tools/arm-none-eabi-gcc/9-2019q4/bin/../lib/gcc/arm-none-eabi/9.2.1/thumb/v7e-m+fp/hard/libgcc.a(_arm_muldf3.o)
                                                  /home/sean/.arduino15/packages/adafruit/tools/arm-none-eabi-gcc/9-2019q4/bin/../lib/gcc/arm-none-eabi/9.2.1/../../../../arm-none-eabi/lib/thumb/v7e-m+fp/hard/libc.a(lib_a-s_frexp.o)
                                                  /home/sean/.arduino15/packages/adafruit/tools/arm-none-eabi-gcc/9-2019q4/bin/../lib/gcc/arm-none-eabi/9.2.1/../../../../arm-none-eabi/lib/thumb/v7e-m+fp/hard/libc.a(lib_a-mprec.o)
                                                  /home/sean/.arduino15/packages/adafruit/tools/arm-none-eabi-gcc/9-2019q4/bin/../lib/gcc/arm-none-eabi/9.2.1/../../../../arm-none-eabi/lib/thumb/v7e-m+fp/hard/libc.a(lib_a-dtoa.o)
                                                  /home/sean/.arduino15/packages/adafruit/tools/arm-none-eabi-gcc/9-2019q4/bin/../lib/gcc/arm-none-eabi/9.2.1/../../../../arm-none-eabi/lib/thumb/v7e-m+fp/hard/libc.a(lib_a-svfprintf.o)
__aeabi_drsub                                     /home/sean/.arduino15/packages/adafruit/tools/arm-none-eabi-gcc/9-2019q4/bin/../lib/gcc/arm-none-eabi/9.2.1/thumb/v7e-m+fp/hard/libgcc.a(_arm_addsubdf3.o)
__aeabi_dsub                                      /home/sean/.arduino15/packages/adafruit/tools/arm-none-eabi-gcc/9-2019q4/bin/../lib/gcc/arm-none-eabi/9.2.1/thumb/v7e-m+fp/hard/libgcc.a(_arm_addsubdf3.o)
                                                  /home/sean/.arduino15/packages/adafruit/tools/arm-none-eabi-gcc/9-2019q4/bin/../lib/gcc/arm-none-eabi/9.2.1/../../../../arm-none-eabi/lib/thumb/v7e-m+fp/hard/libc.a(lib_a-dtoa.o)
                                                  /home/sean/.arduino15/packages/adafruit/tools/arm-none-eabi-gcc/9-2019q4/bin/../lib/gcc/arm-none-eabi/9.2.1/../../../../arm-none-eabi/lib/thumb/v7e-m+fp/hard/libc.a(lib_a-svfprintf.o)
__aeabi_f2d                                       /home/sean/.arduino15/packages/adafruit/tools/arm-none-eabi-gcc/9-2019q4/bin/../lib/gcc/arm-none-eabi/9.2.1/thumb/v7e-m+fp/hard/libgcc.a(_arm_addsubdf3.o)
__aeabi_i2d                                       /home/sean/.arduino15/packages/adafruit/tools/arm-none-eabi-gcc/9-2019q4/bin/../lib/gcc/arm-none-eabi/9.2.1/thumb/v7e-m+fp/hard/libgcc.a(_arm_addsubdf3.o)
                                                  /home/sean/.arduino15/packages/adafruit/tools/arm-none-eabi-gcc/9-2019q4/bin/../lib/gcc/arm-none-eabi/9.2.1/../../../../arm-none-eabi/lib/thumb/v7e-m+fp/hard/libc.a(lib_a-dtoa.o)
                                                  /home/sean/.arduino15/packages/adafruit/tools/arm-none-eabi-gcc/9-2019q4/bin/../lib/gcc/arm-none-eabi/9.2.1/../../../../arm-none-eabi/lib/thumb/v7e-m+fp/hard/libc.a(lib_a-svfprintf.o)
__aeabi_idiv0                                     /home/sean/.arduino15/packages/adafruit/tools/arm-none-eabi-gcc/9-2019q4/bin/../lib/gcc/arm-none-eabi/9.2.1/thumb/v7e-m+fp/hard/libgcc.a(_dvmd_tls.o)
__aeabi_l2d                                       /home/sean/.arduino15/packages/adafruit/tools/arm-none-eabi-gcc/9-2019q4/bin/../lib/gcc/arm-none-eabi/9.2.1/thumb/v7e-m+fp/hard/libgcc.a(_arm_addsubdf3.o)
__aeabi_ldiv0                                     /home/sean/.arduino15/packages/adafruit/tools/arm-none-eabi-gcc/9-2019q4/bin/../lib/gcc/arm-none-eabi/9.2.1/thumb/v7e-m+fp/hard/libgcc.a(_dvmd_tls.o)
                                                  /home/sean/.arduino15/packages/adafruit/tools/arm-none-eabi-gcc/9-2019q4/bin/../lib/gcc/arm-none-eabi/9.2.1/thumb/v7e-m+fp/hard/libgcc.a(_aeabi_uldivmod.o)
__aeabi_ui2d                                      /home/sean/.arduino15/packages/adafruit/tools/arm-none-eabi-gcc/9-2019q4/bin/../lib/gcc/arm-none-eabi/9.2.1/thumb/v7e-m+fp/hard/libgcc.a(_arm_addsubdf3.o)
                                                  /home/sean/.arduino15/packages/adafruit/tools/arm-none-eabi-gcc/9-2019q4/bin/../lib/gcc/arm-none-eabi/9.2.1/../../../../arm-none-eabi/lib/thumb/v7e-m+fp/hard/libc.a(lib_a-dtoa.o)
__aeabi_ul2d                                      /home/sean/.arduino15/packages/adafruit/tools/arm-none-eabi-gcc/9-2019q4/bin/../lib/gcc/arm-none-eabi/9.2.1/thumb/v7e-m+fp/hard/libgcc.a(_arm_addsubdf3.o)
__aeabi_uldivmod                                  /home/sean/.arduino15/packages/adafruit/tools/arm-none-eabi-gcc/9-2019q4/bin/../lib/gcc/arm-none-eabi/9.2.1/thumb/v7e-m+fp/hard/libgcc.a(_aeabi_uldivmod.o)
                                                  /home/sean/.arduino15/packages/adafruit/tools/arm-none-eabi-gcc/9-2019q4/bin/../lib/gcc/arm-none-eabi/9.2.1/../../../../arm-none-eabi/lib/thumb/v7e-m+fp/hard/libc.a(lib_a-svfiprintf.o)
                                                  /home/sean/.arduino15/packages/adafruit/tools/arm-none-eabi-gcc/9-2019q4/bin/../lib/gcc/arm-none-eabi/9.2.1/../../../../arm-none-eabi/lib/thumb/v7e-m+fp/hard/libc.a(lib_a-svfprintf.o)
__any_on                                          /home/sean/.arduino15/packages/adafruit/tools/arm-none-eabi-gcc/9-2019q4/bin/../lib/gcc/arm-none-eabi/9.2.1/../../../../arm-none-eabi/lib/thumb/v7e-m+fp/hard/libc.a(lib_a-mprec.o)
__ascii_mbtowc                                    /home/sean/.arduino15/packages/adafruit/tools/arm-none-eabi-gcc/9-2019q4/bin/../lib/gcc/arm-none-eabi/9.2.1/../../../../arm-none-eabi/lib/thumb/v7e-m+fp/hard/libc.a(lib_a-mbtowc_r.o)
                                                  /home/sean/.arduino15/packages/adafruit/tools/arm-none-eabi-gcc/9-2019q4/bin/../lib/gcc/arm-none-eabi/9.2.1/../../../../arm-none-eabi/lib/thumb/v7e-m+fp/hard/libc.a(lib_a-locale.o)
__ascii_wctomb                                    /home/sean/.arduino15/packages/adafruit/tools/arm-none-eabi-gcc/9-2019q4/bin/../lib/gcc/arm-none-eabi/9.2.1/../../../../arm-none-eabi/lib/thumb/v7e-m+fp/hard/libc.a(lib_a-wctomb_r.o)
                                                  /home/sean/.arduino15/packages/adafruit/tools/arm-none-eabi-gcc/9-2019q4/bin/../lib/gcc/arm-none-eabi/9.2.1/../../../../arm-none-eabi/lib/thumb/v7e-m+fp/hard/libc.a(lib_a-locale.o)
__atexit_recursive_mutex                          /home/sean/.arduino15/packages/adafruit/tools/arm-none-eabi-gcc/9-2019q4/bin/../lib/gcc/arm-none-eabi/9.2.1/../../../../arm-none-eabi/lib/thumb/v7e-m+fp/hard/libc.a(lib_a-__call_atexit.o)
                                                  /home/sean/.arduino15/packages/adafruit/tools/arm-none-eabi-gcc/9-2019q4/bin/../lib/gcc/arm-none-eabi/9.2.1/../../../../arm-none-eabi/lib/thumb/v7e-m+fp/hard/libc.a(lib_a-__atexit.o)
__b2d                                             /home/sean/.arduino15/packages/adafruit/tools/arm-none-eabi-gcc/9-2019q4/bin/../lib/gcc/arm-none-eabi/9.2.1/../../../../arm-none-eabi/lib/thumb/v7e-m+fp/hard/libc.a(lib_a-mprec.o)
__bss_end__                                       /home/sean/.arduino15/packages/adafruit/tools/arm-none-eabi-gcc/9-2019q4/bin/../lib/gcc/arm-none-eabi/9.2.1/../../../../arm-none-eabi/lib/thumb/v7e-m+fp/hard/crt0.o
__bss_start__                                     /home/sean/.cache/arduino/sketches/828FCB417685B578D8734FE54D6C0719/../../cores/adafruit_nrf52_feather52832_834d5f6a6bc090e19e7c4385762c2a0a/core.a(gcc_startup_nrf52.S.o)
                                                  /home/sean/.arduino15/packages/adafruit/tools/arm-none-eabi-gcc/9-2019q4/bin/../lib/gcc/arm-none-eabi/9.2.1/../../../../arm-none-eabi/lib/thumb/v7e-m+fp/hard/crt0.o
__call_exitprocs                                  /home/sean/.arduino15/packages/adafruit/tools/arm-none-eabi-gcc/9-2019q4/bin/../lib/gcc/arm-none-eabi/9.2.1/../../../../arm-none-eabi/lib/thumb/v7e-m+fp/hard/libc.a(lib_a-__call_atexit.o)
                                                  /home/sean/.arduino15/packages/adafruit/tools/arm-none-eabi-gcc/9-2019q4/bin/../lib/gcc/arm-none-eabi/9.2.1/../../../../arm-none-eabi/lib/thumb/v7e-m+fp/hard/libc.a(lib_a-exit.o)
__cmpdf2                                          /home/sean/.arduino15/packages/adafruit/tools/arm-none-eabi-gcc/9-2019q4/bin/../lib/gcc/arm-none-eabi/9.2.1/thumb/v7e-m+fp/hard/libgcc.a(_arm_cmpdf2.o)
__copybits                                        /home/sean/.arduino15/packages/adafruit/tools/arm-none-eabi-gcc/9-2019q4/bin/../lib/gcc/arm-none-eabi/9.2.1/../../../../arm-none-eabi/lib/thumb/v7e-m+fp/hard/libc.a(lib_a-mprec.o)
__d2b                                             /home/sean/.arduino15/packages/adafruit/tools/arm-none-eabi-gcc/9-2019q4/bin/../lib/gcc/arm-none-eabi/9.2.1/../../../../arm-none-eabi/lib/thumb/v7e-m+fp/hard/libc.a(lib_a-mprec.o)
                                                  /home/sean/.arduino15/packages/adafruit/tools/arm-none-eabi-gcc/9-2019q4/bin/../lib/gcc/arm-none-eabi/9.2.1/../../../../arm-none-eabi/lib/thumb/v7e-m+fp/hard/libc.a(lib_a-dtoa.o)
__data_start__                                    /home/sean/.cache/arduino/sketches/828FCB417685B578D8734FE54D6C0719/../../cores/adafruit_nrf52_feather52832_834d5f6a6bc090e19e7c4385762c2a0a/core.a(gcc_startup_nrf52.S.o)
__deregister_frame_info                           /home/sean/.arduino15/packages/adafruit/tools/arm-none-eabi-gcc/9-2019q4/bin/../lib/gcc/arm-none-eabi/9.2.1/thumb/v7e-m+fp/hard/crtbegin.o
__divdf3                                          /home/sean/.arduino15/packages/adafruit/tools/arm-none-eabi-gcc/9-2019q4/bin/../lib/gcc/arm-none-eabi/9.2.1/thumb/v7e-m+fp/hard/libgcc.a(_arm_muldivdf3.o)
__dso_handle                                      /home/sean/.arduino15/packages/adafruit/tools/arm-none-eabi-gcc/9-2019q4/bin/../lib/gcc/arm-none-eabi/9.2.1/thumb/v7e-m+fp/hard/crtbegin.o
__eqdf2                                           /home/sean/.arduino15/packages/adafruit/tools/arm-none-eabi-gcc/9-2019q4/bin/../lib/gcc/arm-none-eabi/9.2.1/thumb/v7e-m+fp/hard/libgcc.a(_arm_cmpdf2.o)
__etext                                           /home/sean/.cache/arduino/sketches/828FCB417685B578D8734FE54D6C0719/../../cores/adafruit_nrf52_feather52832_834d5f6a6bc090e19e7c4385762c2a0a/core.a(gcc_startup_nrf52.S.o)
__extendsfdf2                                     /home/sean/.arduino15/packages/adafruit/tools/arm-none-eabi-gcc/9-2019q4/bin/../lib/gcc/arm-none-eabi/9.2.1/thumb/v7e-m+fp/hard/libgcc.a(_arm_addsubdf3.o)
__fini_array_end                                  /home/sean/.arduino15/packages/adafruit/tools/arm-none-eabi-gcc/9-2019q4/bin/../lib/gcc/arm-none-eabi/9.2.1/../../../../arm-none-eabi/lib/thumb/v7e-m+fp/hard/libc.a(lib_a-fini.o)
__fini_array_start                                /home/sean/.arduino15/packages/adafruit/tools/arm-none-eabi-gcc/9-2019q4/bin/../lib/gcc/arm-none-eabi/9.2.1/../../../../arm-none-eabi/lib/thumb/v7e-m+fp/hard/libc.a(lib_a-fini.o)
__fixdfsi                                         /home/sean/.arduino15/packages/adafruit/tools/arm-none-eabi-gcc/9-2019q4/bin/../lib/gcc/arm-none-eabi/9.2.1/thumb/v7e-m+fp/hard/libgcc.a(_arm_fixdfsi.o)
__floatdidf                                       /home/sean/.arduino15/packages/adafruit/tools/arm-none-eabi-gcc/9-2019q4/bin/../lib/gcc/arm-none-eabi/9.2.1/thumb/v7e-m+fp/hard/libgcc.a(_arm_addsubdf3.o)
__floatsidf                                       /home/sean/.arduino15/packages/adafruit/tools/arm-none-eabi-gcc/9-2019q4/bin/../lib/gcc/arm-none-eabi/9.2.1/thumb/v7e-m+fp/hard/libgcc.a(_arm_addsubdf3.o)
__floatundidf                                     /home/sean/.arduino15/packages/adafruit/tools/arm-none-eabi-gcc/9-2019q4/bin/../lib/gcc/arm-none-eabi/9.2.1/thumb/v7e-m+fp/hard/libgcc.a(_arm_addsubdf3.o)
__floatunsidf                                     /home/sean/.arduino15/packages/adafruit/tools/arm-none-eabi-gcc/9-2019q4/bin/../lib/gcc/arm-none-eabi/9.2.1/thumb/v7e-m+fp/hard/libgcc.a(_arm_addsubdf3.o)
__gedf2                                           /home/sean/.arduino15/packages/adafruit/tools/arm-none-eabi-gcc/9-2019q4/bin/../lib/gcc/arm-none-eabi/9.2.1/thumb/v7e-m+fp/hard/libgcc.a(_arm_cmpdf2.o)
__global_locale                                   /home/sean/.arduino15/packages/adafruit/tools/arm-none-eabi-gcc/9-2019q4/bin/../lib/gcc/arm-none-eabi/9.2.1/../../../../arm-none-eabi/lib/thumb/v7e-m+fp/hard/libc.a(lib_a-locale.o)
                                                  /home/sean/.arduino15/packages/adafruit/tools/arm-none-eabi-gcc/9-2019q4/bin/../lib/gcc/arm-none-eabi/9.2.1/../../../../arm-none-eabi/lib/thumb/v7e-m+fp/hard/libc.a(lib_a-wctomb_r.o)
                                                  /home/sean/.arduino15/packages/adafruit/tools/arm-none-eabi-gcc/9-2019q4/bin/../lib/gcc/arm-none-eabi/9.2.1/../../../../arm-none-eabi/lib/thumb/v7e-m+fp/hard/libc.a(lib_a-mbtowc_r.o)
                                                  /home/sean/.arduino15/packages/adafruit/tools/arm-none-eabi-gcc/9-2019q4/bin/../lib/gcc/arm-none-eabi/9.2.1/../../../../arm-none-eabi/lib/thumb/v7e-m+fp/hard/libc.a(lib_a-localeconv.o)
__gtdf2                                           /home/sean/.arduino15/packages/adafruit/tools/arm-none-eabi-gcc/9-2019q4/bin/../lib/gcc/arm-none-eabi/9.2.1/thumb/v7e-m+fp/hard/libgcc.a(_arm_cmpdf2.o)
__hi0bits                                         /home/sean/.arduino15/packages/adafruit/tools/arm-none-eabi-gcc/9-2019q4/bin/../lib/gcc/arm-none-eabi/9.2.1/../../../../arm-none-eabi/lib/thumb/v7e-m+fp/hard/libc.a(lib_a-mprec.o)
                                                  /home/sean/.arduino15/packages/adafruit/tools/arm-none-eabi-gcc/9-2019q4/bin/../lib/gcc/arm-none-eabi/9.2.1/../../../../arm-none-eabi/lib/thumb/v7e-m+fp/hard/libc.a(lib_a-dtoa.o)
__i2b                                             /home/sean/.arduino15/packages/adafruit/tools/arm-none-eabi-gcc/9-2019q4/bin/../lib/gcc/arm-none-eabi/9.2.1/../../../../arm-none-eabi/lib/thumb/v7e-m+fp/hard/libc.a(lib_a-mprec.o)
                                                  /home/sean/.arduino15/packages/adafruit/tools/arm-none-eabi-gcc/9-2019q4/bin/../lib/gcc/arm-none-eabi/9.2.1/../../../../arm-none-eabi/lib/thumb/v7e-m+fp/hard/libc.a(lib_a-dtoa.o)
__init_array_end                                  /home/sean/.arduino15/packages/adafruit/tools/arm-none-eabi-gcc/9-2019q4/bin/../lib/gcc/arm-none-eabi/9.2.1/../../../../arm-none-eabi/lib/thumb/v7e-m+fp/hard/libc.a(lib_a-init.o)
__init_array_start                                /home/sean/.arduino15/packages/adafruit/tools/arm-none-eabi-gcc/9-2019q4/bin/../lib/gcc/arm-none-eabi/9.2.1/../../../../arm-none-eabi/lib/thumb/v7e-m+fp/hard/libc.a(lib_a-init.o)
__isr_vector                                      /home/sean/.cache/arduino/sketches/828FCB417685B578D8734FE54D6C0719/../../cores/adafruit_nrf52_feather52832_834d5f6a6bc090e19e7c4385762c2a0a/core.a(gcc_startup_nrf52.S.o)
                                                  /home/sean/.cache/arduino/sketches/828FCB417685B578D8734FE54D6C0719/../../cores/adafruit_nrf52_feather52832_834d5f6a6bc090e19e7c4385762c2a0a/core.a(port.c.o)
__ledf2                                           /home/sean/.arduino15/packages/adafruit/tools/arm-none-eabi-gcc/9-2019q4/bin/../lib/gcc/arm-none-eabi/9.2.1/thumb/v7e-m+fp/hard/libgcc.a(_arm_cmpdf2.o)
__libc_fini                                       /home/sean/.arduino15/packages/adafruit/tools/arm-none-eabi-gcc/9-2019q4/bin/../lib/gcc/arm-none-eabi/9.2.1/../../../../arm-none-eabi/lib/thumb/v7e-m+fp/hard/libc.a(lib_a-__call_atexit.o)
__libc_fini_array                                 /home/sean/.arduino15/packages/adafruit/tools/arm-none-eabi-gcc/9-2019q4/bin/../lib/gcc/arm-none-eabi/9.2.1/../../../../arm-none-eabi/lib/thumb/v7e-m+fp/hard/libc.a(lib_a-fini.o)
                                                  /home/sean/.arduino15/packages/adafruit/tools/arm-none-eabi-gcc/9-2019q4/bin/../lib/gcc/arm-none-eabi/9.2.1/../../../../arm-none-eabi/lib/thumb/v7e-m+fp/hard/libc.a(lib_a-__call_atexit.o)
                                                  /home/sean/.arduino15/packages/adafruit/tools/arm-none-eabi-gcc/9-2019q4/bin/../lib/gcc/arm-none-eabi/9.2.1/../../../../arm-none-eabi/lib/thumb/v7e-m+fp/hard/crt0.o
__libc_init_array                                 /home/sean/.arduino15/packages/adafruit/tools/arm-none-eabi-gcc/9-2019q4/bin/../lib/gcc/arm-none-eabi/9.2.1/../../../../arm-none-eabi/lib/thumb/v7e-m+fp/hard/libc.a(lib_a-init.o)
                                                  /home/sean/.arduino15/packages/adafruit/tools/arm-none-eabi-gcc/9-2019q4/bin/../lib/gcc/arm-none-eabi/9.2.1/../../../../arm-none-eabi/lib/thumb/v7e-m+fp/hard/crt0.o
__lo0bits                                         /home/sean/.arduino15/packages/adafruit/tools/arm-none-eabi-gcc/9-2019q4/bin/../lib/gcc/arm-none-eabi/9.2.1/../../../../arm-none-eabi/lib/thumb/v7e-m+fp/hard/libc.a(lib_a-mprec.o)
__locale_mb_cur_max                               /home/sean/.arduino15/packages/adafruit/tools/arm-none-eabi-gcc/9-2019q4/bin/../lib/gcc/arm-none-eabi/9.2.1/../../../../arm-none-eabi/lib/thumb/v7e-m+fp/hard/libc.a(lib_a-locale.o)
__localeconv_l                                    /home/sean/.arduino15/packages/adafruit/tools/arm-none-eabi-gcc/9-2019q4/bin/../lib/gcc/arm-none-eabi/9.2.1/../../../../arm-none-eabi/lib/thumb/v7e-m+fp/hard/libc.a(lib_a-localeconv.o)
__lock___arc4random_mutex                         /home/sean/.arduino15/packages/adafruit/tools/arm-none-eabi-gcc/9-2019q4/bin/../lib/gcc/arm-none-eabi/9.2.1/../../../../arm-none-eabi/lib/thumb/v7e-m+fp/hard/libc.a(lib_a-lock.o)
__lock___at_quick_exit_mutex                      /home/sean/.arduino15/packages/adafruit/tools/arm-none-eabi-gcc/9-2019q4/bin/../lib/gcc/arm-none-eabi/9.2.1/../../../../arm-none-eabi/lib/thumb/v7e-m+fp/hard/libc.a(lib_a-lock.o)
__lock___atexit_recursive_mutex                   /home/sean/.arduino15/packages/adafruit/tools/arm-none-eabi-gcc/9-2019q4/bin/../lib/gcc/arm-none-eabi/9.2.1/../../../../arm-none-eabi/lib/thumb/v7e-m+fp/hard/libc.a(lib_a-lock.o)
                                                  /home/sean/.arduino15/packages/adafruit/tools/arm-none-eabi-gcc/9-2019q4/bin/../lib/gcc/arm-none-eabi/9.2.1/../../../../arm-none-eabi/lib/thumb/v7e-m+fp/hard/libc.a(lib_a-__call_atexit.o)
__lock___dd_hash_mutex                            /home/sean/.arduino15/packages/adafruit/tools/arm-none-eabi-gcc/9-2019q4/bin/../lib/gcc/arm-none-eabi/9.2.1/../../../../arm-none-eabi/lib/thumb/v7e-m+fp/hard/libc.a(lib_a-lock.o)
__lock___env_recursive_mutex                      /home/sean/.arduino15/packages/adafruit/tools/arm-none-eabi-gcc/9-2019q4/bin/../lib/gcc/arm-none-eabi/9.2.1/../../../../arm-none-eabi/lib/thumb/v7e-m+fp/hard/libc.a(lib_a-lock.o)
__lock___malloc_recursive_mutex                   /home/sean/.arduino15/packages/adafruit/tools/arm-none-eabi-gcc/9-2019q4/bin/../lib/gcc/arm-none-eabi/9.2.1/../../../../arm-none-eabi/lib/thumb/v7e-m+fp/hard/libc.a(lib_a-lock.o)
                                                  /home/sean/.arduino15/packages/adafruit/tools/arm-none-eabi-gcc/9-2019q4/bin/../lib/gcc/arm-none-eabi/9.2.1/../../../../arm-none-eabi/lib/thumb/v7e-m+fp/hard/libc.a(lib_a-mlock.o)
__lock___sfp_recursive_mutex                      /home/sean/.arduino15/packages/adafruit/tools/arm-none-eabi-gcc/9-2019q4/bin/../lib/gcc/arm-none-eabi/9.2.1/../../../../arm-none-eabi/lib/thumb/v7e-m+fp/hard/libc.a(lib_a-lock.o)
__lock___sinit_recursive_mutex                    /home/sean/.arduino15/packages/adafruit/tools/arm-none-eabi-gcc/9-2019q4/bin/../lib/gcc/arm-none-eabi/9.2.1/../../../../arm-none-eabi/lib/thumb/v7e-m+fp/hard/libc.a(lib_a-lock.o)
__lock___tz_mutex                                 /home/sean/.arduino15/packages/adafruit/tools/arm-none-eabi-gcc/9-2019q4/bin/../lib/gcc/arm-none-eabi/9.2.1/../../../../arm-none-eabi/lib/thumb/v7e-m+fp/hard/libc.a(lib_a-lock.o)
__lshift                                          /home/sean/.arduino15/packages/adafruit/tools/arm-none-eabi-gcc/9-2019q4/bin/../lib/gcc/arm-none-eabi/9.2.1/../../../../arm-none-eabi/lib/thumb/v7e-m+fp/hard/libc.a(lib_a-mprec.o)
                                                  /home/sean/.arduino15/packages/adafruit/tools/arm-none-eabi-gcc/9-2019q4/bin/../lib/gcc/arm-none-eabi/9.2.1/../../../../arm-none-eabi/lib/thumb/v7e-m+fp/hard/libc.a(lib_a-dtoa.o)
__ltdf2                                           /home/sean/.arduino15/packages/adafruit/tools/arm-none-eabi-gcc/9-2019q4/bin/../lib/gcc/arm-none-eabi/9.2.1/thumb/v7e-m+fp/hard/libgcc.a(_arm_cmpdf2.o)
__malloc_av_                                      /home/sean/.arduino15/packages/adafruit/tools/arm-none-eabi-gcc/9-2019q4/bin/../lib/gcc/arm-none-eabi/9.2.1/../../../../arm-none-eabi/lib/thumb/v7e-m+fp/hard/libc.a(lib_a-mallocr.o)
                                                  /home/sean/.arduino15/packages/adafruit/tools/arm-none-eabi-gcc/9-2019q4/bin/../lib/gcc/arm-none-eabi/9.2.1/../../../../arm-none-eabi/lib/thumb/v7e-m+fp/hard/libc.a(lib_a-freer.o)
                                                  /home/sean/.arduino15/packages/adafruit/tools/arm-none-eabi-gcc/9-2019q4/bin/../lib/gcc/arm-none-eabi/9.2.1/../../../../arm-none-eabi/lib/thumb/v7e-m+fp/hard/libc.a(lib_a-reallocr.o)
__malloc_current_mallinfo                         /home/sean/.arduino15/packages/adafruit/tools/arm-none-eabi-gcc/9-2019q4/bin/../lib/gcc/arm-none-eabi/9.2.1/../../../../arm-none-eabi/lib/thumb/v7e-m+fp/hard/libc.a(lib_a-mallocr.o)
                                                  /home/sean/.arduino15/packages/adafruit/tools/arm-none-eabi-gcc/9-2019q4/bin/../lib/gcc/arm-none-eabi/9.2.1/../../../../arm-none-eabi/lib/thumb/v7e-m+fp/hard/libc.a(lib_a-freer.o)
__malloc_lock                                     /home/sean/.arduino15/packages/adafruit/tools/arm-none-eabi-gcc/9-2019q4/bin/../lib/gcc/arm-none-eabi/9.2.1/../../../../arm-none-eabi/lib/thumb/v7e-m+fp/hard/libc.a(lib_a-mlock.o)
                                                  /home/sean/.arduino15/packages/adafruit/tools/arm-none-eabi-gcc/9-2019q4/bin/../lib/gcc/arm-none-eabi/9.2.1/../../../../arm-none-eabi/lib/thumb/v7e-m+fp/hard/libc.a(lib_a-freer.o)
                                                  /home/sean/.arduino15/packages/adafruit/tools/arm-none-eabi-gcc/9-2019q4/bin/../lib/gcc/arm-none-eabi/9.2.1/../../../../arm-none-eabi/lib/thumb/v7e-m+fp/hard/libc.a(lib_a-reallocr.o)
                                                  /home/sean/.arduino15/packages/adafruit/tools/arm-none-eabi-gcc/9-2019q4/bin/../lib/gcc/arm-none-eabi/9.2.1/../../../../arm-none-eabi/lib/thumb/v7e-m+fp/hard/libc.a(lib_a-mallocr.o)
__malloc_max_sbrked_mem                           /home/sean/.arduino15/packages/adafruit/tools/arm-none-eabi-gcc/9-2019q4/bin/../lib/gcc/arm-none-eabi/9.2.1/../../../../arm-none-eabi/lib/thumb/v7e-m+fp/hard/libc.a(lib_a-mallocr.o)
__malloc_max_total_mem                            /home/sean/.arduino15/packages/adafruit/tools/arm-none-eabi-gcc/9-2019q4/bin/../lib/gcc/arm-none-eabi/9.2.1/../../../../arm-none-eabi/lib/thumb/v7e-m+fp/hard/libc.a(lib_a-mallocr.o)
__malloc_sbrk_base                                /home/sean/.arduino15/packages/adafruit/tools/arm-none-eabi-gcc/9-2019q4/bin/../lib/gcc/arm-none-eabi/9.2.1/../../../../arm-none-eabi/lib/thumb/v7e-m+fp/hard/libc.a(lib_a-mallocr.o)
                                                  /home/sean/.arduino15/packages/adafruit/tools/arm-none-eabi-gcc/9-2019q4/bin/../lib/gcc/arm-none-eabi/9.2.1/../../../../arm-none-eabi/lib/thumb/v7e-m+fp/hard/libc.a(lib_a-freer.o)
__malloc_top_pad                                  /home/sean/.arduino15/packages/adafruit/tools/arm-none-eabi-gcc/9-2019q4/bin/../lib/gcc/arm-none-eabi/9.2.1/../../../../arm-none-eabi/lib/thumb/v7e-m+fp/hard/libc.a(lib_a-mallocr.o)
                                                  /home/sean/.arduino15/packages/adafruit/tools/arm-none-eabi-gcc/9-2019q4/bin/../lib/gcc/arm-none-eabi/9.2.1/../../../../arm-none-eabi/lib/thumb/v7e-m+fp/hard/libc.a(lib_a-freer.o)
__malloc_trim_threshold                           /home/sean/.arduino15/packages/adafruit/tools/arm-none-eabi-gcc/9-2019q4/bin/../lib/gcc/arm-none-eabi/9.2.1/../../../../arm-none-eabi/lib/thumb/v7e-m+fp/hard/libc.a(lib_a-mallocr.o)
                                                  /home/sean/.arduino15/packages/adafruit/tools/arm-none-eabi-gcc/9-2019q4/bin/../lib/gcc/arm-none-eabi/9.2.1/../../../../arm-none-eabi/lib/thumb/v7e-m+fp/hard/libc.a(lib_a-freer.o)
__malloc_unlock                                   /home/sean/.arduino15/packages/adafruit/tools/arm-none-eabi-gcc/9-2019q4/bin/../lib/gcc/arm-none-eabi/9.2.1/../../../../arm-none-eabi/lib/thumb/v7e-m+fp/hard/libc.a(lib_a-mlock.o)
                                                  /home/sean/.arduino15/packages/adafruit/tools/arm-none-eabi-gcc/9-2019q4/bin/../lib/gcc/arm-none-eabi/9.2.1/../../../../arm-none-eabi/lib/thumb/v7e-m+fp/hard/libc.a(lib_a-freer.o)
                                                  /home/sean/.arduino15/packages/adafruit/tools/arm-none-eabi-gcc/9-2019q4/bin/../lib/gcc/arm-none-eabi/9.2.1/../../../../arm-none-eabi/lib/thumb/v7e-m+fp/hard/libc.a(lib_a-reallocr.o)
                                                  /home/sean/.arduino15/packages/adafruit/tools/arm-none-eabi-gcc/9-2019q4/bin/../lib/gcc/arm-none-eabi/9.2.1/../../../../arm-none-eabi/lib/thumb/v7e-m+fp/hard/libc.a(lib_a-mallocr.o)
__mcmp                                            /home/sean/.arduino15/packages/adafruit/tools/arm-none-eabi-gcc/9-2019q4/bin/../lib/gcc/arm-none-eabi/9.2.1/../../../../arm-none-eabi/lib/thumb/v7e-m+fp/hard/libc.a(lib_a-mprec.o)
                                                  /home/sean/.arduino15/packages/adafruit/tools/arm-none-eabi-gcc/9-2019q4/bin/../lib/gcc/arm-none-eabi/9.2.1/../../../../arm-none-eabi/lib/thumb/v7e-m+fp/hard/libc.a(lib_a-dtoa.o)
__mdiff                                           /home/sean/.arduino15/packages/adafruit/tools/arm-none-eabi-gcc/9-2019q4/bin/../lib/gcc/arm-none-eabi/9.2.1/../../../../arm-none-eabi/lib/thumb/v7e-m+fp/hard/libc.a(lib_a-mprec.o)
                                                  /home/sean/.arduino15/packages/adafruit/tools/arm-none-eabi-gcc/9-2019q4/bin/../lib/gcc/arm-none-eabi/9.2.1/../../../../arm-none-eabi/lib/thumb/v7e-m+fp/hard/libc.a(lib_a-dtoa.o)
__mprec_bigtens                                   /home/sean/.arduino15/packages/adafruit/tools/arm-none-eabi-gcc/9-2019q4/bin/../lib/gcc/arm-none-eabi/9.2.1/../../../../arm-none-eabi/lib/thumb/v7e-m+fp/hard/libc.a(lib_a-mprec.o)
                                                  /home/sean/.arduino15/packages/adafruit/tools/arm-none-eabi-gcc/9-2019q4/bin/../lib/gcc/arm-none-eabi/9.2.1/../../../../arm-none-eabi/lib/thumb/v7e-m+fp/hard/libc.a(lib_a-dtoa.o)
__mprec_tens                                      /home/sean/.arduino15/packages/adafruit/tools/arm-none-eabi-gcc/9-2019q4/bin/../lib/gcc/arm-none-eabi/9.2.1/../../../../arm-none-eabi/lib/thumb/v7e-m+fp/hard/libc.a(lib_a-mprec.o)
                                                  /home/sean/.arduino15/packages/adafruit/tools/arm-none-eabi-gcc/9-2019q4/bin/../lib/gcc/arm-none-eabi/9.2.1/../../../../arm-none-eabi/lib/thumb/v7e-m+fp/hard/libc.a(lib_a-dtoa.o)
__mprec_tinytens                                  /home/sean/.arduino15/packages/adafruit/tools/arm-none-eabi-gcc/9-2019q4/bin/../lib/gcc/arm-none-eabi/9.2.1/../../../../arm-none-eabi/lib/thumb/v7e-m+fp/hard/libc.a(lib_a-mprec.o)
__muldf3                                          /home/sean/.arduino15/packages/adafruit/tools/arm-none-eabi-gcc/9-2019q4/bin/../lib/gcc/arm-none-eabi/9.2.1/thumb/v7e-m+fp/hard/libgcc.a(_arm_muldivdf3.o)
                                                  /home/sean/.arduino15/packages/adafruit/tools/arm-none-eabi-gcc/9-2019q4/bin/../lib/gcc/arm-none-eabi/9.2.1/thumb/v7e-m+fp/hard/libgcc.a(_arm_muldf3.o)
__multadd                                         /home/sean/.arduino15/packages/adafruit/tools/arm-none-eabi-gcc/9-2019q4/bin/../lib/gcc/arm-none-eabi/9.2.1/../../../../arm-none-eabi/lib/thumb/v7e-m+fp/hard/libc.a(lib_a-mprec.o)
                                                  /home/sean/.arduino15/packages/adafruit/tools/arm-none-eabi-gcc/9-2019q4/bin/../lib/gcc/arm-none-eabi/9.2.1/../../../../arm-none-eabi/lib/thumb/v7e-m+fp/hard/libc.a(lib_a-dtoa.o)
__multiply                                        /home/sean/.arduino15/packages/adafruit/tools/arm-none-eabi-gcc/9-2019q4/bin/../lib/gcc/arm-none-eabi/9.2.1/../../../../arm-none-eabi/lib/thumb/v7e-m+fp/hard/libc.a(lib_a-mprec.o)
                                                  /home/sean/.arduino15/packages/adafruit/tools/arm-none-eabi-gcc/9-2019q4/bin/../lib/gcc/arm-none-eabi/9.2.1/../../../../arm-none-eabi/lib/thumb/v7e-m+fp/hard/libc.a(lib_a-dtoa.o)
__nedf2                                           /home/sean/.arduino15/packages/adafruit/tools/arm-none-eabi-gcc/9-2019q4/bin/../lib/gcc/arm-none-eabi/9.2.1/thumb/v7e-m+fp/hard/libgcc.a(_arm_cmpdf2.o)
__pow5mult                                        /home/sean/.arduino15/packages/adafruit/tools/arm-none-eabi-gcc/9-2019q4/bin/../lib/gcc/arm-none-eabi/9.2.1/../../../../arm-none-eabi/lib/thumb/v7e-m+fp/hard/libc.a(lib_a-mprec.o)
                                                  /home/sean/.arduino15/packages/adafruit/tools/arm-none-eabi-gcc/9-2019q4/bin/../lib/gcc/arm-none-eabi/9.2.1/../../../../arm-none-eabi/lib/thumb/v7e-m+fp/hard/libc.a(lib_a-dtoa.o)
__preinit_array_end                               /home/sean/.arduino15/packages/adafruit/tools/arm-none-eabi-gcc/9-2019q4/bin/../lib/gcc/arm-none-eabi/9.2.1/../../../../arm-none-eabi/lib/thumb/v7e-m+fp/hard/libc.a(lib_a-init.o)
__preinit_array_start                             /home/sean/.arduino15/packages/adafruit/tools/arm-none-eabi-gcc/9-2019q4/bin/../lib/gcc/arm-none-eabi/9.2.1/../../../../arm-none-eabi/lib/thumb/v7e-m+fp/hard/libc.a(lib_a-init.o)
__ratio                                           /home/sean/.arduino15/packages/adafruit/tools/arm-none-eabi-gcc/9-2019q4/bin/../lib/gcc/arm-none-eabi/9.2.1/../../../../arm-none-eabi/lib/thumb/v7e-m+fp/hard/libc.a(lib_a-mprec.o)
__register_exitproc                               /home/sean/.arduino15/packages/adafruit/tools/arm-none-eabi-gcc/9-2019q4/bin/../lib/gcc/arm-none-eabi/9.2.1/../../../../arm-none-eabi/lib/thumb/v7e-m+fp/hard/libc.a(lib_a-__atexit.o)
                                                  /home/sean/.arduino15/packages/adafruit/tools/arm-none-eabi-gcc/9-2019q4/bin/../lib/gcc/arm-none-eabi/9.2.1/../../../../arm-none-eabi/lib/thumb/v7e-m+fp/hard/libc.a(lib_a-atexit.o)
__register_frame_info                             /home/sean/.arduino15/packages/adafruit/tools/arm-none-eabi-gcc/9-2019q4/bin/../lib/gcc/arm-none-eabi/9.2.1/thumb/v7e-m+fp/hard/crtbegin.o
__retarget_lock_acquire                           /home/sean/.arduino15/packages/adafruit/tools/arm-none-eabi-gcc/9-2019q4/bin/../lib/gcc/arm-none-eabi/9.2.1/../../../../arm-none-eabi/lib/thumb/v7e-m+fp/hard/libc.a(lib_a-lock.o)
__retarget_lock_acquire_recursive                 /home/sean/.arduino15/packages/adafruit/tools/arm-none-eabi-gcc/9-2019q4/bin/../lib/gcc/arm-none-eabi/9.2.1/../../../../arm-none-eabi/lib/thumb/v7e-m+fp/hard/libc.a(lib_a-lock.o)
                                                  /home/sean/.arduino15/packages/adafruit/tools/arm-none-eabi-gcc/9-2019q4/bin/../lib/gcc/arm-none-eabi/9.2.1/../../../../arm-none-eabi/lib/thumb/v7e-m+fp/hard/libc.a(lib_a-__atexit.o)
                                                  /home/sean/.arduino15/packages/adafruit/tools/arm-none-eabi-gcc/9-2019q4/bin/../lib/gcc/arm-none-eabi/9.2.1/../../../../arm-none-eabi/lib/thumb/v7e-m+fp/hard/libc.a(lib_a-__call_atexit.o)
                                                  /home/sean/.arduino15/packages/adafruit/tools/arm-none-eabi-gcc/9-2019q4/bin/../lib/gcc/arm-none-eabi/9.2.1/../../../../arm-none-eabi/lib/thumb/v7e-m+fp/hard/libc.a(lib_a-mlock.o)
__retarget_lock_close                             /home/sean/.arduino15/packages/adafruit/tools/arm-none-eabi-gcc/9-2019q4/bin/../lib/gcc/arm-none-eabi/9.2.1/../../../../arm-none-eabi/lib/thumb/v7e-m+fp/hard/libc.a(lib_a-lock.o)
__retarget_lock_close_recursive                   /home/sean/.arduino15/packages/adafruit/tools/arm-none-eabi-gcc/9-2019q4/bin/../lib/gcc/arm-none-eabi/9.2.1/../../../../arm-none-eabi/lib/thumb/v7e-m+fp/hard/libc.a(lib_a-lock.o)
__retarget_lock_init                              /home/sean/.arduino15/packages/adafruit/tools/arm-none-eabi-gcc/9-2019q4/bin/../lib/gcc/arm-none-eabi/9.2.1/../../../../arm-none-eabi/lib/thumb/v7e-m+fp/hard/libc.a(lib_a-lock.o)
__retarget_lock_init_recursive                    /home/sean/.arduino15/packages/adafruit/tools/arm-none-eabi-gcc/9-2019q4/bin/../lib/gcc/arm-none-eabi/9.2.1/../../../../arm-none-eabi/lib/thumb/v7e-m+fp/hard/libc.a(lib_a-lock.o)
__retarget_lock_release                           /home/sean/.arduino15/packages/adafruit/tools/arm-none-eabi-gcc/9-2019q4/bin/../lib/gcc/arm-none-eabi/9.2.1/../../../../arm-none-eabi/lib/thumb/v7e-m+fp/hard/libc.a(lib_a-lock.o)
__retarget_lock_release_recursive                 /home/sean/.arduino15/packages/adafruit/tools/arm-none-eabi-gcc/9-2019q4/bin/../lib/gcc/arm-none-eabi/9.2.1/../../../../arm-none-eabi/lib/thumb/v7e-m+fp/hard/libc.a(lib_a-lock.o)
                                                  /home/sean/.arduino15/packages/adafruit/tools/arm-none-eabi-gcc/9-2019q4/bin/../lib/gcc/arm-none-eabi/9.2.1/../../../../arm-none-eabi/lib/thumb/v7e-m+fp/hard/libc.a(lib_a-__atexit.o)
                                                  /home/sean/.arduino15/packages/adafruit/tools/arm-none-eabi-gcc/9-2019q4/bin/../lib/gcc/arm-none-eabi/9.2.1/../../../../arm-none-eabi/lib/thumb/v7e-m+fp/hard/libc.a(lib_a-__call_atexit.o)
                                                  /home/sean/.arduino15/packages/adafruit/tools/arm-none-eabi-gcc/9-2019q4/bin/../lib/gcc/arm-none-eabi/9.2.1/../../../../arm-none-eabi/lib/thumb/v7e-m+fp/hard/libc.a(lib_a-mlock.o)
__retarget_lock_try_acquire                       /home/sean/.arduino15/packages/adafruit/tools/arm-none-eabi-gcc/9-2019q4/bin/../lib/gcc/arm-none-eabi/9.2.1/../../../../arm-none-eabi/lib/thumb/v7e-m+fp/hard/libc.a(lib_a-lock.o)
__retarget_lock_try_acquire_recursive             /home/sean/.arduino15/packages/adafruit/tools/arm-none-eabi-gcc/9-2019q4/bin/../lib/gcc/arm-none-eabi/9.2.1/../../../../arm-none-eabi/lib/thumb/v7e-m+fp/hard/libc.a(lib_a-lock.o)
__s2b                                             /home/sean/.arduino15/packages/adafruit/tools/arm-none-eabi-gcc/9-2019q4/bin/../lib/gcc/arm-none-eabi/9.2.1/../../../../arm-none-eabi/lib/thumb/v7e-m+fp/hard/libc.a(lib_a-mprec.o)
__ssprint_r                                       /home/sean/.arduino15/packages/adafruit/tools/arm-none-eabi-gcc/9-2019q4/bin/../lib/gcc/arm-none-eabi/9.2.1/../../../../arm-none-eabi/lib/thumb/v7e-m+fp/hard/libc.a(lib_a-svfiprintf.o)
                                                  /home/sean/.arduino15/packages/adafruit/tools/arm-none-eabi-gcc/9-2019q4/bin/../lib/gcc/arm-none-eabi/9.2.1/../../../../arm-none-eabi/lib/thumb/v7e-m+fp/hard/libc.a(lib_a-svfprintf.o)
__stack                                           /home/sean/.arduino15/packages/adafruit/tools/arm-none-eabi-gcc/9-2019q4/bin/../lib/gcc/arm-none-eabi/9.2.1/../../../../arm-none-eabi/lib/thumb/v7e-m+fp/hard/crt0.o
__subdf3                                          /home/sean/.arduino15/packages/adafruit/tools/arm-none-eabi-gcc/9-2019q4/bin/../lib/gcc/arm-none-eabi/9.2.1/thumb/v7e-m+fp/hard/libgcc.a(_arm_addsubdf3.o)
__udivmoddi4                                      /home/sean/.arduino15/packages/adafruit/tools/arm-none-eabi-gcc/9-2019q4/bin/../lib/gcc/arm-none-eabi/9.2.1/thumb/v7e-m+fp/hard/libgcc.a(_udivmoddi4.o)
                                                  /home/sean/.arduino15/packages/adafruit/tools/arm-none-eabi-gcc/9-2019q4/bin/../lib/gcc/arm-none-eabi/9.2.1/thumb/v7e-m+fp/hard/libgcc.a(_aeabi_uldivmod.o)
__ulp                                             /home/sean/.arduino15/packages/adafruit/tools/arm-none-eabi-gcc/9-2019q4/bin/../lib/gcc/arm-none-eabi/9.2.1/../../../../arm-none-eabi/lib/thumb/v7e-m+fp/hard/libc.a(lib_a-mprec.o)
__unorddf2                                        /home/sean/.arduino15/packages/adafruit/tools/arm-none-eabi-gcc/9-2019q4/bin/../lib/gcc/arm-none-eabi/9.2.1/thumb/v7e-m+fp/hard/libgcc.a(_arm_unorddf2.o)
__wrap_calloc                                     /home/sean/.cache/arduino/sketches/828FCB417685B578D8734FE54D6C0719/../../cores/adafruit_nrf52_feather52832_834d5f6a6bc090e19e7c4385762c2a0a/core.a(heap_3.c.o)
__wrap_free                                       /home/sean/.cache/arduino/sketches/828FCB417685B578D8734FE54D6C0719/../../cores/adafruit_nrf52_feather52832_834d5f6a6bc090e19e7c4385762c2a0a/core.a(heap_3.c.o)
                                                  /home/sean/.cache/arduino/sketches/828FCB417685B578D8734FE54D6C0719/../../cores/adafruit_nrf52_feather52832_834d5f6a6bc090e19e7c4385762c2a0a/core.a(AdaCallback.c.o)
__wrap_malloc                                     /home/sean/.cache/arduino/sketches/828FCB417685B578D8734FE54D6C0719/../../cores/adafruit_nrf52_feather52832_834d5f6a6bc090e19e7c4385762c2a0a/core.a(heap_3.c.o)
                                                  /home/sean/.cache/arduino/sketches/828FCB417685B578D8734FE54D6C0719/../../cores/adafruit_nrf52_feather52832_834d5f6a6bc090e19e7c4385762c2a0a/core.a(AdaCallback.c.o)
__wrap_realloc                                    /home/sean/.cache/arduino/sketches/828FCB417685B578D8734FE54D6C0719/../../cores/adafruit_nrf52_feather52832_834d5f6a6bc090e19e7c4385762c2a0a/core.a(heap_3.c.o)
_calloc_r                                         /home/sean/.arduino15/packages/adafruit/tools/arm-none-eabi-gcc/9-2019q4/bin/../lib/gcc/arm-none-eabi/9.2.1/../../../../arm-none-eabi/lib/thumb/v7e-m+fp/hard/libc.a(lib_a-callocr.o)
                                                  /home/sean/.arduino15/packages/adafruit/tools/arm-none-eabi-gcc/9-2019q4/bin/../lib/gcc/arm-none-eabi/9.2.1/../../../../arm-none-eabi/lib/thumb/v7e-m+fp/hard/libc.a(lib_a-mprec.o)
                                                  /home/sean/.arduino15/packages/adafruit/tools/arm-none-eabi-gcc/9-2019q4/bin/../lib/gcc/arm-none-eabi/9.2.1/../../../../arm-none-eabi/lib/thumb/v7e-m+fp/hard/libc.a(lib_a-calloc.o)
_ctype_                                           /home/sean/.arduino15/packages/adafruit/tools/arm-none-eabi-gcc/9-2019q4/bin/../lib/gcc/arm-none-eabi/9.2.1/../../../../arm-none-eabi/lib/thumb/v7e-m+fp/hard/libc.a(lib_a-ctype_.o)
                                                  /home/sean/.arduino15/packages/adafruit/tools/arm-none-eabi-gcc/9-2019q4/bin/../lib/gcc/arm-none-eabi/9.2.1/../../../../arm-none-eabi/lib/thumb/v7e-m+fp/hard/libc.a(lib_a-locale.o)
_dtoa_r                                           /home/sean/.arduino15/packages/adafruit/tools/arm-none-eabi-gcc/9-2019q4/bin/../lib/gcc/arm-none-eabi/9.2.1/../../../../arm-none-eabi/lib/thumb/v7e-m+fp/hard/libc.a(lib_a-dtoa.o)
                                                  /home/sean/.arduino15/packages/adafruit/tools/arm-none-eabi-gcc/9-2019q4/bin/../lib/gcc/arm-none-eabi/9.2.1/../../../../arm-none-eabi/lib/thumb/v7e-m+fp/hard/libc.a(lib_a-svfprintf.o)
_exit                                             /home/sean/.arduino15/packages/adafruit/tools/arm-none-eabi-gcc/9-2019q4/bin/../lib/gcc/arm-none-eabi/9.2.1/../../../../arm-none-eabi/lib/thumb/v7e-m+fp/hard/libnosys.a(_exit.o)
                                                  /home/sean/.arduino15/packages/adafruit/tools/arm-none-eabi-gcc/9-2019q4/bin/../lib/gcc/arm-none-eabi/9.2.1/../../../../arm-none-eabi/lib/thumb/v7e-m+fp/hard/libc.a(lib_a-exit.o)
_fini                                             /home/sean/.arduino15/packages/adafruit/tools/arm-none-eabi-gcc/9-2019q4/bin/../lib/gcc/arm-none-eabi/9.2.1/thumb/v7e-m+fp/hard/crti.o
                                                  /home/sean/.arduino15/packages/adafruit/tools/arm-none-eabi-gcc/9-2019q4/bin/../lib/gcc/arm-none-eabi/9.2.1/../../../../arm-none-eabi/lib/thumb/v7e-m+fp/hard/libc.a(lib_a-fini.o)
_free_r                                           /home/sean/.arduino15/packages/adafruit/tools/arm-none-eabi-gcc/9-2019q4/bin/../lib/gcc/arm-none-eabi/9.2.1/../../../../arm-none-eabi/lib/thumb/v7e-m+fp/hard/libc.a(lib_a-freer.o)
                                                  /home/sean/.arduino15/packages/adafruit/tools/arm-none-eabi-gcc/9-2019q4/bin/../lib/gcc/arm-none-eabi/9.2.1/../../../../arm-none-eabi/lib/thumb/v7e-m+fp/hard/libc.a(lib_a-svfiprintf.o)
                                                  /home/sean/.arduino15/packages/adafruit/tools/arm-none-eabi-gcc/9-2019q4/bin/../lib/gcc/arm-none-eabi/9.2.1/../../../../arm-none-eabi/lib/thumb/v7e-m+fp/hard/libc.a(lib_a-reent.o)
                                                  /home/sean/.arduino15/packages/adafruit/tools/arm-none-eabi-gcc/9-2019q4/bin/../lib/gcc/arm-none-eabi/9.2.1/../../../../arm-none-eabi/lib/thumb/v7e-m+fp/hard/libc.a(lib_a-svfprintf.o)
                                                  /home/sean/.arduino15/packages/adafruit/tools/arm-none-eabi-gcc/9-2019q4/bin/../lib/gcc/arm-none-eabi/9.2.1/../../../../arm-none-eabi/lib/thumb/v7e-m+fp/hard/libc.a(lib_a-reallocr.o)
                                                  /home/sean/.arduino15/packages/adafruit/tools/arm-none-eabi-gcc/9-2019q4/bin/../lib/gcc/arm-none-eabi/9.2.1/../../../../arm-none-eabi/lib/thumb/v7e-m+fp/hard/libc.a(lib_a-mallocr.o)
                                                  /home/sean/.arduino15/packages/adafruit/tools/arm-none-eabi-gcc/9-2019q4/bin/../lib/gcc/arm-none-eabi/9.2.1/../../../../arm-none-eabi/lib/thumb/v7e-m+fp/hard/libc.a(lib_a-malloc.o)
_global_impure_ptr                                /home/sean/.arduino15/packages/adafruit/tools/arm-none-eabi-gcc/9-2019q4/bin/../lib/gcc/arm-none-eabi/9.2.1/../../../../arm-none-eabi/lib/thumb/v7e-m+fp/hard/libc.a(lib_a-impure.o)
                                                  /home/sean/.arduino15/packages/adafruit/tools/arm-none-eabi-gcc/9-2019q4/bin/../lib/gcc/arm-none-eabi/9.2.1/../../../../arm-none-eabi/lib/thumb/v7e-m+fp/hard/libc.a(lib_a-__atexit.o)
                                                  /home/sean/.arduino15/packages/adafruit/tools/arm-none-eabi-gcc/9-2019q4/bin/../lib/gcc/arm-none-eabi/9.2.1/../../../../arm-none-eabi/lib/thumb/v7e-m+fp/hard/libc.a(lib_a-__call_atexit.o)
                                                  /home/sean/.arduino15/packages/adafruit/tools/arm-none-eabi-gcc/9-2019q4/bin/../lib/gcc/arm-none-eabi/9.2.1/../../../../arm-none-eabi/lib/thumb/v7e-m+fp/hard/libc.a(lib_a-exit.o)
_impure_ptr                                       /home/sean/.arduino15/packages/adafruit/tools/arm-none-eabi-gcc/9-2019q4/bin/../lib/gcc/arm-none-eabi/9.2.1/../../../../arm-none-eabi/lib/thumb/v7e-m+fp/hard/libc.a(lib_a-impure.o)
                                                  /home/sean/.arduino15/packages/adafruit/tools/arm-none-eabi-gcc/9-2019q4/bin/../lib/gcc/arm-none-eabi/9.2.1/../../../../arm-none-eabi/lib/thumb/v7e-m+fp/hard/libc.a(lib_a-locale.o)
                                                  /home/sean/.arduino15/packages/adafruit/tools/arm-none-eabi-gcc/9-2019q4/bin/../lib/gcc/arm-none-eabi/9.2.1/../../../../arm-none-eabi/lib/thumb/v7e-m+fp/hard/libc.a(lib_a-reent.o)
                                                  /home/sean/.arduino15/packages/adafruit/tools/arm-none-eabi-gcc/9-2019q4/bin/../lib/gcc/arm-none-eabi/9.2.1/../../../../arm-none-eabi/lib/thumb/v7e-m+fp/hard/libc.a(lib_a-sprintf.o)
                                                  /home/sean/.arduino15/packages/adafruit/tools/arm-none-eabi-gcc/9-2019q4/bin/../lib/gcc/arm-none-eabi/9.2.1/../../../../arm-none-eabi/lib/thumb/v7e-m+fp/hard/libc.a(lib_a-realloc.o)
                                                  /home/sean/.arduino15/packages/adafruit/tools/arm-none-eabi-gcc/9-2019q4/bin/../lib/gcc/arm-none-eabi/9.2.1/../../../../arm-none-eabi/lib/thumb/v7e-m+fp/hard/libc.a(lib_a-malloc.o)
                                                  /home/sean/.arduino15/packages/adafruit/tools/arm-none-eabi-gcc/9-2019q4/bin/../lib/gcc/arm-none-eabi/9.2.1/../../../../arm-none-eabi/lib/thumb/v7e-m+fp/hard/libc.a(lib_a-calloc.o)
_init                                             /home/sean/.arduino15/packages/adafruit/tools/arm-none-eabi-gcc/9-2019q4/bin/../lib/gcc/arm-none-eabi/9.2.1/thumb/v7e-m+fp/hard/crti.o
                                                  /home/sean/.arduino15/packages/adafruit/tools/arm-none-eabi-gcc/9-2019q4/bin/../lib/gcc/arm-none-eabi/9.2.1/../../../../arm-none-eabi/lib/thumb/v7e-m+fp/hard/libc.a(lib_a-init.o)
_localeconv_r                                     /home/sean/.arduino15/packages/adafruit/tools/arm-none-eabi-gcc/9-2019q4/bin/../lib/gcc/arm-none-eabi/9.2.1/../../../../arm-none-eabi/lib/thumb/v7e-m+fp/hard/libc.a(lib_a-localeconv.o)
                                                  /home/sean/.arduino15/packages/adafruit/tools/arm-none-eabi-gcc/9-2019q4/bin/../lib/gcc/arm-none-eabi/9.2.1/../../../../arm-none-eabi/lib/thumb/v7e-m+fp/hard/libc.a(lib_a-svfiprintf.o)
                                                  /home/sean/.arduino15/packages/adafruit/tools/arm-none-eabi-gcc/9-2019q4/bin/../lib/gcc/arm-none-eabi/9.2.1/../../../../arm-none-eabi/lib/thumb/v7e-m+fp/hard/libc.a(lib_a-svfprintf.o)
_mainCRTStartup                                   /home/sean/.arduino15/packages/adafruit/tools/arm-none-eabi-gcc/9-2019q4/bin/../lib/gcc/arm-none-eabi/9.2.1/../../../../arm-none-eabi/lib/thumb/v7e-m+fp/hard/crt0.o
_malloc_r                                         /home/sean/.arduino15/packages/adafruit/tools/arm-none-eabi-gcc/9-2019q4/bin/../lib/gcc/arm-none-eabi/9.2.1/../../../../arm-none-eabi/lib/thumb/v7e-m+fp/hard/libc.a(lib_a-mallocr.o)
                                                  /home/sean/.arduino15/packages/adafruit/tools/arm-none-eabi-gcc/9-2019q4/bin/../lib/gcc/arm-none-eabi/9.2.1/../../../../arm-none-eabi/lib/thumb/v7e-m+fp/hard/libc.a(lib_a-svfiprintf.o)
                                                  /home/sean/.arduino15/packages/adafruit/tools/arm-none-eabi-gcc/9-2019q4/bin/../lib/gcc/arm-none-eabi/9.2.1/../../../../arm-none-eabi/lib/thumb/v7e-m+fp/hard/libc.a(lib_a-svfprintf.o)
                                                  /home/sean/.arduino15/packages/adafruit/tools/arm-none-eabi-gcc/9-2019q4/bin/../lib/gcc/arm-none-eabi/9.2.1/../../../../arm-none-eabi/lib/thumb/v7e-m+fp/hard/libc.a(lib_a-reallocr.o)
                                                  /home/sean/.arduino15/packages/adafruit/tools/arm-none-eabi-gcc/9-2019q4/bin/../lib/gcc/arm-none-eabi/9.2.1/../../../../arm-none-eabi/lib/thumb/v7e-m+fp/hard/libc.a(lib_a-malloc.o)
                                                  /home/sean/.arduino15/packages/adafruit/tools/arm-none-eabi-gcc/9-2019q4/bin/../lib/gcc/arm-none-eabi/9.2.1/../../../../arm-none-eabi/lib/thumb/v7e-m+fp/hard/libc.a(lib_a-callocr.o)
_malloc_trim_r                                    /home/sean/.arduino15/packages/adafruit/tools/arm-none-eabi-gcc/9-2019q4/bin/../lib/gcc/arm-none-eabi/9.2.1/../../../../arm-none-eabi/lib/thumb/v7e-m+fp/hard/libc.a(lib_a-freer.o)
_mbtowc_r                                         /home/sean/.arduino15/packages/adafruit/tools/arm-none-eabi-gcc/9-2019q4/bin/../lib/gcc/arm-none-eabi/9.2.1/../../../../arm-none-eabi/lib/thumb/v7e-m+fp/hard/libc.a(lib_a-mbtowc_r.o)
_mprec_log10                                      /home/sean/.arduino15/packages/adafruit/tools/arm-none-eabi-gcc/9-2019q4/bin/../lib/gcc/arm-none-eabi/9.2.1/../../../../arm-none-eabi/lib/thumb/v7e-m+fp/hard/libc.a(lib_a-mprec.o)
_realloc_r                                        /home/sean/.arduino15/packages/adafruit/tools/arm-none-eabi-gcc/9-2019q4/bin/../lib/gcc/arm-none-eabi/9.2.1/../../../../arm-none-eabi/lib/thumb/v7e-m+fp/hard/libc.a(lib_a-reallocr.o)
                                                  /home/sean/.arduino15/packages/adafruit/tools/arm-none-eabi-gcc/9-2019q4/bin/../lib/gcc/arm-none-eabi/9.2.1/../../../../arm-none-eabi/lib/thumb/v7e-m+fp/hard/libc.a(lib_a-svfiprintf.o)
                                                  /home/sean/.arduino15/packages/adafruit/tools/arm-none-eabi-gcc/9-2019q4/bin/../lib/gcc/arm-none-eabi/9.2.1/../../../../arm-none-eabi/lib/thumb/v7e-m+fp/hard/libc.a(lib_a-realloc.o)
_reclaim_reent                                    /home/sean/.arduino15/packages/adafruit/tools/arm-none-eabi-gcc/9-2019q4/bin/../lib/gcc/arm-none-eabi/9.2.1/../../../../arm-none-eabi/lib/thumb/v7e-m+fp/hard/libc.a(lib_a-reent.o)
_sbrk                                             /home/sean/.arduino15/packages/adafruit/tools/arm-none-eabi-gcc/9-2019q4/bin/../lib/gcc/arm-none-eabi/9.2.1/../../../../arm-none-eabi/lib/thumb/v7e-m+fp/hard/libnosys.a(sbrk.o)
                                                  /home/sean/.arduino15/packages/adafruit/tools/arm-none-eabi-gcc/9-2019q4/bin/../lib/gcc/arm-none-eabi/9.2.1/../../../../arm-none-eabi/lib/thumb/v7e-m+fp/hard/libc.a(lib_a-sbrkr.o)
_sbrk_r                                           /home/sean/.arduino15/packages/adafruit/tools/arm-none-eabi-gcc/9-2019q4/bin/../lib/gcc/arm-none-eabi/9.2.1/../../../../arm-none-eabi/lib/thumb/v7e-m+fp/hard/libc.a(lib_a-sbrkr.o)
                                                  /home/sean/.arduino15/packages/adafruit/tools/arm-none-eabi-gcc/9-2019q4/bin/../lib/gcc/arm-none-eabi/9.2.1/../../../../arm-none-eabi/lib/thumb/v7e-m+fp/hard/libc.a(lib_a-freer.o)
                                                  /home/sean/.arduino15/packages/adafruit/tools/arm-none-eabi-gcc/9-2019q4/bin/../lib/gcc/arm-none-eabi/9.2.1/../../../../arm-none-eabi/lib/thumb/v7e-m+fp/hard/libc.a(lib_a-mallocr.o)
_setlocale_r                                      /home/sean/.arduino15/packages/adafruit/tools/arm-none-eabi-gcc/9-2019q4/bin/../lib/gcc/arm-none-eabi/9.2.1/../../../../arm-none-eabi/lib/thumb/v7e-m+fp/hard/libc.a(lib_a-locale.o)
_sprintf_r                                        /home/sean/.arduino15/packages/adafruit/tools/arm-none-eabi-gcc/9-2019q4/bin/../lib/gcc/arm-none-eabi/9.2.1/../../../../arm-none-eabi/lib/thumb/v7e-m+fp/hard/libc.a(lib_a-sprintf.o)
_start                                            /home/sean/.arduino15/packages/adafruit/tools/arm-none-eabi-gcc/9-2019q4/bin/../lib/gcc/arm-none-eabi/9.2.1/../../../../arm-none-eabi/lib/thumb/v7e-m+fp/hard/crt0.o
                                                  /home/sean/.cache/arduino/sketches/828FCB417685B578D8734FE54D6C0719/../../cores/adafruit_nrf52_feather52832_834d5f6a6bc090e19e7c4385762c2a0a/core.a(gcc_startup_nrf52.S.o)
_svfiprintf_r                                     /home/sean/.arduino15/packages/adafruit/tools/arm-none-eabi-gcc/9-2019q4/bin/../lib/gcc/arm-none-eabi/9.2.1/../../../../arm-none-eabi/lib/thumb/v7e-m+fp/hard/libc.a(lib_a-svfiprintf.o)
_svfprintf_r                                      /home/sean/.arduino15/packages/adafruit/tools/arm-none-eabi-gcc/9-2019q4/bin/../lib/gcc/arm-none-eabi/9.2.1/../../../../arm-none-eabi/lib/thumb/v7e-m+fp/hard/libc.a(lib_a-svfprintf.o)
                                                  /home/sean/.arduino15/packages/adafruit/tools/arm-none-eabi-gcc/9-2019q4/bin/../lib/gcc/arm-none-eabi/9.2.1/../../../../arm-none-eabi/lib/thumb/v7e-m+fp/hard/libc.a(lib_a-sprintf.o)
_wctomb_r                                         /home/sean/.arduino15/packages/adafruit/tools/arm-none-eabi-gcc/9-2019q4/bin/../lib/gcc/arm-none-eabi/9.2.1/../../../../arm-none-eabi/lib/thumb/v7e-m+fp/hard/libc.a(lib_a-wctomb_r.o)
_write                                            /home/sean/.cache/arduino/sketches/828FCB417685B578D8734FE54D6C0719/../../cores/adafruit_nrf52_feather52832_834d5f6a6bc090e19e7c4385762c2a0a/core.a(main.cpp.o)
ada_callback_init                                 /home/sean/.cache/arduino/sketches/828FCB417685B578D8734FE54D6C0719/../../cores/adafruit_nrf52_feather52832_834d5f6a6bc090e19e7c4385762c2a0a/core.a(AdaCallback.c.o)
                                                  /home/sean/.cache/arduino/sketches/828FCB417685B578D8734FE54D6C0719/../../cores/adafruit_nrf52_feather52832_834d5f6a6bc090e19e7c4385762c2a0a/core.a(main.cpp.o)
ada_callback_invoke                               /home/sean/.cache/arduino/sketches/828FCB417685B578D8734FE54D6C0719/../../cores/adafruit_nrf52_feather52832_834d5f6a6bc090e19e7c4385762c2a0a/core.a(AdaCallback.c.o)
ada_callback_queue                                /home/sean/.cache/arduino/sketches/828FCB417685B578D8734FE54D6C0719/../../cores/adafruit_nrf52_feather52832_834d5f6a6bc090e19e7c4385762c2a0a/core.a(AdaCallback.c.o)
ada_callback_queue_resize                         /home/sean/.cache/arduino/sketches/828FCB417685B578D8734FE54D6C0719/../../cores/adafruit_nrf52_feather52832_834d5f6a6bc090e19e7c4385762c2a0a/core.a(AdaCallback.c.o)
adafruit_callback_task                            /home/sean/.cache/arduino/sketches/828FCB417685B578D8734FE54D6C0719/../../cores/adafruit_nrf52_feather52832_834d5f6a6bc090e19e7c4385762c2a0a/core.a(AdaCallback.c.o)
atexit                                            /home/sean/.arduino15/packages/adafruit/tools/arm-none-eabi-gcc/9-2019q4/bin/../lib/gcc/arm-none-eabi/9.2.1/../../../../arm-none-eabi/lib/thumb/v7e-m+fp/hard/libc.a(lib_a-atexit.o)
                                                  /home/sean/.arduino15/packages/adafruit/tools/arm-none-eabi-gcc/9-2019q4/bin/../lib/gcc/arm-none-eabi/9.2.1/../../../../arm-none-eabi/lib/thumb/v7e-m+fp/hard/libc.a(lib_a-__call_atexit.o)
                                                  /home/sean/.arduino15/packages/adafruit/tools/arm-none-eabi-gcc/9-2019q4/bin/../lib/gcc/arm-none-eabi/9.2.1/../../../../arm-none-eabi/lib/thumb/v7e-m+fp/hard/crt0.o
bootloaderVersion                                 /home/sean/.cache/arduino/sketches/828FCB417685B578D8734FE54D6C0719/../../cores/adafruit_nrf52_feather52832_834d5f6a6bc090e19e7c4385762c2a0a/core.a(wiring.c.o)
calloc                                            /home/sean/.arduino15/packages/adafruit/tools/arm-none-eabi-gcc/9-2019q4/bin/../lib/gcc/arm-none-eabi/9.2.1/../../../../arm-none-eabi/lib/thumb/v7e-m+fp/hard/libc.a(lib_a-calloc.o)
                                                  /home/sean/.cache/arduino/sketches/828FCB417685B578D8734FE54D6C0719/../../cores/adafruit_nrf52_feather52832_834d5f6a6bc090e19e7c4385762c2a0a/core.a(heap_3.c.o)
cleanup_glue                                      /home/sean/.arduino15/packages/adafruit/tools/arm-none-eabi-gcc/9-2019q4/bin/../lib/gcc/arm-none-eabi/9.2.1/../../../../arm-none-eabi/lib/thumb/v7e-m+fp/hard/libc.a(lib_a-reent.o)
digitalRead                                       /home/sean/.cache/arduino/sketches/828FCB417685B578D8734FE54D6C0719/../../cores/adafruit_nrf52_feather52832_834d5f6a6bc090e19e7c4385762c2a0a/core.a(wiring_digital.c.o)
digitalToggle                                     /home/sean/.cache/arduino/sketches/828FCB417685B578D8734FE54D6C0719/../../cores/adafruit_nrf52_feather52832_834d5f6a6bc090e19e7c4385762c2a0a/core.a(wiring_digital.c.o)
digitalWrite                                      /home/sean/.cache/arduino/sketches/828FCB417685B578D8734FE54D6C0719/../../cores/adafruit_nrf52_feather52832_834d5f6a6bc090e19e7c4385762c2a0a/core.a(wiring_digital.c.o)
eTaskConfirmSleepModeStatus                       /home/sean/.cache/arduino/sketches/828FCB417685B578D8734FE54D6C0719/../../cores/adafruit_nrf52_feather52832_834d5f6a6bc090e19e7c4385762c2a0a/core.a(tasks.c.o)
                                                  /home/sean/.cache/arduino/sketches/828FCB417685B578D8734FE54D6C0719/../../cores/adafruit_nrf52_feather52832_834d5f6a6bc090e19e7c4385762c2a0a/core.a(port_cmsis_systick.c.o)
eTaskGetState                                     /home/sean/.cache/arduino/sketches/828FCB417685B578D8734FE54D6C0719/../../cores/adafruit_nrf52_feather52832_834d5f6a6bc090e19e7c4385762c2a0a/core.a(tasks.c.o)
end                                               /home/sean/.arduino15/packages/adafruit/tools/arm-none-eabi-gcc/9-2019q4/bin/../lib/gcc/arm-none-eabi/9.2.1/../../../../arm-none-eabi/lib/thumb/v7e-m+fp/hard/libnosys.a(sbrk.o)
enterOTADfu                                       /home/sean/.cache/arduino/sketches/828FCB417685B578D8734FE54D6C0719/../../cores/adafruit_nrf52_feather52832_834d5f6a6bc090e19e7c4385762c2a0a/core.a(wiring.c.o)
enterSerialDfu                                    /home/sean/.cache/arduino/sketches/828FCB417685B578D8734FE54D6C0719/../../cores/adafruit_nrf52_feather52832_834d5f6a6bc090e19e7c4385762c2a0a/core.a(wiring.c.o)
enterUf2Dfu                                       /home/sean/.cache/arduino/sketches/828FCB417685B578D8734FE54D6C0719/../../cores/adafruit_nrf52_feather52832_834d5f6a6bc090e19e7c4385762c2a0a/core.a(wiring.c.o)
errno                                             /home/sean/.arduino15/packages/adafruit/tools/arm-none-eabi-gcc/9-2019q4/bin/../lib/gcc/arm-none-eabi/9.2.1/../../../../arm-none-eabi/lib/thumb/v7e-m+fp/hard/libc.a(lib_a-reent.o)
                                                  /home/sean/.arduino15/packages/adafruit/tools/arm-none-eabi-gcc/9-2019q4/bin/../lib/gcc/arm-none-eabi/9.2.1/../../../../arm-none-eabi/lib/thumb/v7e-m+fp/hard/libc.a(lib_a-sbrkr.o)
exit                                              /home/sean/.arduino15/packages/adafruit/tools/arm-none-eabi-gcc/9-2019q4/bin/../lib/gcc/arm-none-eabi/9.2.1/../../../../arm-none-eabi/lib/thumb/v7e-m+fp/hard/libc.a(lib_a-exit.o)
                                                  /home/sean/.arduino15/packages/adafruit/tools/arm-none-eabi-gcc/9-2019q4/bin/../lib/gcc/arm-none-eabi/9.2.1/../../../../arm-none-eabi/lib/thumb/v7e-m+fp/hard/crt0.o
free                                              /home/sean/.arduino15/packages/adafruit/tools/arm-none-eabi-gcc/9-2019q4/bin/../lib/gcc/arm-none-eabi/9.2.1/../../../../arm-none-eabi/lib/thumb/v7e-m+fp/hard/libc.a(lib_a-malloc.o)
                                                  /home/sean/.cache/arduino/sketches/828FCB417685B578D8734FE54D6C0719/../../cores/adafruit_nrf52_feather52832_834d5f6a6bc090e19e7c4385762c2a0a/core.a(heap_3.c.o)
frexp                                             /home/sean/.arduino15/packages/adafruit/tools/arm-none-eabi-gcc/9-2019q4/bin/../lib/gcc/arm-none-eabi/9.2.1/../../../../arm-none-eabi/lib/thumb/v7e-m+fp/hard/libc.a(lib_a-s_frexp.o)
                                                  /home/sean/.arduino15/packages/adafruit/tools/arm-none-eabi-gcc/9-2019q4/bin/../lib/gcc/arm-none-eabi/9.2.1/../../../../arm-none-eabi/lib/thumb/v7e-m+fp/hard/libc.a(lib_a-svfprintf.o)
g_ADigitalPinMap                                  /home/sean/.cache/arduino/sketches/828FCB417685B578D8734FE54D6C0719/core/variant.cpp.o
                                                  /home/sean/.cache/arduino/sketches/828FCB417685B578D8734FE54D6C0719/../../cores/adafruit_nrf52_feather52832_834d5f6a6bc090e19e7c4385762c2a0a/core.a(Uart.cpp.o)
                                                  /home/sean/.cache/arduino/sketches/828FCB417685B578D8734FE54D6C0719/../../cores/adafruit_nrf52_feather52832_834d5f6a6bc090e19e7c4385762c2a0a/core.a(wiring_digital.c.o)
                                                  /home/sean/.cache/arduino/sketches/828FCB417685B578D8734FE54D6C0719/../../cores/adafruit_nrf52_feather52832_834d5f6a6bc090e19e7c4385762c2a0a/core.a(wiring.c.o)
hardware_init_hook                                /home/sean/.arduino15/packages/adafruit/tools/arm-none-eabi-gcc/9-2019q4/bin/../lib/gcc/arm-none-eabi/9.2.1/../../../../arm-none-eabi/lib/thumb/v7e-m+fp/hard/crt0.o
init                                              /home/sean/.cache/arduino/sketches/828FCB417685B578D8734FE54D6C0719/../../cores/adafruit_nrf52_feather52832_834d5f6a6bc090e19e7c4385762c2a0a/core.a(wiring.c.o)
                                                  /home/sean/.cache/arduino/sketches/828FCB417685B578D8734FE54D6C0719/../../cores/adafruit_nrf52_feather52832_834d5f6a6bc090e19e7c4385762c2a0a/core.a(main.cpp.o)
initVariant()                                     /home/sean/.cache/arduino/sketches/828FCB417685B578D8734FE54D6C0719/core/variant.cpp.o
ledOff                                            /home/sean/.cache/arduino/sketches/828FCB417685B578D8734FE54D6C0719/../../cores/adafruit_nrf52_feather52832_834d5f6a6bc090e19e7c4385762c2a0a/core.a(wiring_digital.c.o)
                                                  /home/sean/.cache/arduino/sketches/828FCB417685B578D8734FE54D6C0719/core/variant.cpp.o
ledOn                                             /home/sean/.cache/arduino/sketches/828FCB417685B578D8734FE54D6C0719/../../cores/adafruit_nrf52_feather52832_834d5f6a6bc090e19e7c4385762c2a0a/core.a(wiring_digital.c.o)
led_init                                          /home/sean/.cache/arduino/sketches/828FCB417685B578D8734FE54D6C0719/sketch/led.c.o
                                                  /home/sean/.cache/arduino/sketches/828FCB417685B578D8734FE54D6C0719/sketch/macro-blues.ino.cpp.o
led_main                                          /home/sean/.cache/arduino/sketches/828FCB417685B578D8734FE54D6C0719/sketch/led.c.o
                                                  /home/sean/.cache/arduino/sketches/828FCB417685B578D8734FE54D6C0719/sketch/macro-blues.ino.cpp.o
localeconv                                        /home/sean/.arduino15/packages/adafruit/tools/arm-none-eabi-gcc/9-2019q4/bin/../lib/gcc/arm-none-eabi/9.2.1/../../../../arm-none-eabi/lib/thumb/v7e-m+fp/hard/libc.a(lib_a-localeconv.o)
loop                                              /home/sean/.cache/arduino/sketches/828FCB417685B578D8734FE54D6C0719/sketch/macro-blues.ino.cpp.o
                                                  /home/sean/.cache/arduino/sketches/828FCB417685B578D8734FE54D6C0719/../../cores/adafruit_nrf52_feather52832_834d5f6a6bc090e19e7c4385762c2a0a/core.a(main.cpp.o)
main                                              /home/sean/.cache/arduino/sketches/828FCB417685B578D8734FE54D6C0719/../../cores/adafruit_nrf52_feather52832_834d5f6a6bc090e19e7c4385762c2a0a/core.a(main.cpp.o)
                                                  /home/sean/.arduino15/packages/adafruit/tools/arm-none-eabi-gcc/9-2019q4/bin/../lib/gcc/arm-none-eabi/9.2.1/../../../../arm-none-eabi/lib/thumb/v7e-m+fp/hard/crt0.o
malloc                                            /home/sean/.arduino15/packages/adafruit/tools/arm-none-eabi-gcc/9-2019q4/bin/../lib/gcc/arm-none-eabi/9.2.1/../../../../arm-none-eabi/lib/thumb/v7e-m+fp/hard/libc.a(lib_a-malloc.o)
                                                  /home/sean/.cache/arduino/sketches/828FCB417685B578D8734FE54D6C0719/../../cores/adafruit_nrf52_feather52832_834d5f6a6bc090e19e7c4385762c2a0a/core.a(heap_3.c.o)
memchr                                            /home/sean/.arduino15/packages/adafruit/tools/arm-none-eabi-gcc/9-2019q4/bin/../lib/gcc/arm-none-eabi/9.2.1/../../../../arm-none-eabi/lib/thumb/v7e-m+fp/hard/libc.a(lib_a-memchr.o)
                                                  /home/sean/.arduino15/packages/adafruit/tools/arm-none-eabi-gcc/9-2019q4/bin/../lib/gcc/arm-none-eabi/9.2.1/../../../../arm-none-eabi/lib/thumb/v7e-m+fp/hard/libc.a(lib_a-svfiprintf.o)
                                                  /home/sean/.arduino15/packages/adafruit/tools/arm-none-eabi-gcc/9-2019q4/bin/../lib/gcc/arm-none-eabi/9.2.1/../../../../arm-none-eabi/lib/thumb/v7e-m+fp/hard/libc.a(lib_a-svfprintf.o)
memcpy                                            /home/sean/.arduino15/packages/adafruit/tools/arm-none-eabi-gcc/9-2019q4/bin/../lib/gcc/arm-none-eabi/9.2.1/../../../../arm-none-eabi/lib/thumb/v7e-m+fp/hard/libc.a(lib_a-memcpy.o)
                                                  /home/sean/.arduino15/packages/adafruit/tools/arm-none-eabi-gcc/9-2019q4/bin/../lib/gcc/arm-none-eabi/9.2.1/../../../../arm-none-eabi/lib/thumb/v7e-m+fp/hard/libc.a(lib_a-svfiprintf.o)
                                                  /home/sean/.arduino15/packages/adafruit/tools/arm-none-eabi-gcc/9-2019q4/bin/../lib/gcc/arm-none-eabi/9.2.1/../../../../arm-none-eabi/lib/thumb/v7e-m+fp/hard/libc.a(lib_a-mprec.o)
                                                  /home/sean/.arduino15/packages/adafruit/tools/arm-none-eabi-gcc/9-2019q4/bin/../lib/gcc/arm-none-eabi/9.2.1/../../../../arm-none-eabi/lib/thumb/v7e-m+fp/hard/libc.a(lib_a-dtoa.o)
                                                  /home/sean/.cache/arduino/sketches/828FCB417685B578D8734FE54D6C0719/../../cores/adafruit_nrf52_feather52832_834d5f6a6bc090e19e7c4385762c2a0a/core.a(queue.c.o)
                                                  /home/sean/.cache/arduino/sketches/828FCB417685B578D8734FE54D6C0719/../../cores/adafruit_nrf52_feather52832_834d5f6a6bc090e19e7c4385762c2a0a/core.a(Uart.cpp.o)
                                                  /home/sean/.cache/arduino/sketches/828FCB417685B578D8734FE54D6C0719/../../cores/adafruit_nrf52_feather52832_834d5f6a6bc090e19e7c4385762c2a0a/core.a(AdaCallback.c.o)
memmove                                           /home/sean/.arduino15/packages/adafruit/tools/arm-none-eabi-gcc/9-2019q4/bin/../lib/gcc/arm-none-eabi/9.2.1/../../../../arm-none-eabi/lib/thumb/v7e-m+fp/hard/libc.a(lib_a-memmove.o)
                                                  /home/sean/.arduino15/packages/adafruit/tools/arm-none-eabi-gcc/9-2019q4/bin/../lib/gcc/arm-none-eabi/9.2.1/../../../../arm-none-eabi/lib/thumb/v7e-m+fp/hard/libc.a(lib_a-svfiprintf.o)
                                                  /home/sean/.arduino15/packages/adafruit/tools/arm-none-eabi-gcc/9-2019q4/bin/../lib/gcc/arm-none-eabi/9.2.1/../../../../arm-none-eabi/lib/thumb/v7e-m+fp/hard/libc.a(lib_a-reallocr.o)
memset                                            /home/sean/.arduino15/packages/adafruit/tools/arm-none-eabi-gcc/9-2019q4/bin/../lib/gcc/arm-none-eabi/9.2.1/../../../../arm-none-eabi/lib/thumb/v7e-m+fp/hard/libc.a(lib_a-memset.o)
                                                  /home/sean/.arduino15/packages/adafruit/tools/arm-none-eabi-gcc/9-2019q4/bin/../lib/gcc/arm-none-eabi/9.2.1/../../../../arm-none-eabi/lib/thumb/v7e-m+fp/hard/libc.a(lib_a-callocr.o)
                                                  /home/sean/.cache/arduino/sketches/828FCB417685B578D8734FE54D6C0719/../../cores/adafruit_nrf52_feather52832_834d5f6a6bc090e19e7c4385762c2a0a/core.a(RingBuffer.cpp.o)
                                                  /home/sean/.cache/arduino/sketches/828FCB417685B578D8734FE54D6C0719/../../cores/adafruit_nrf52_feather52832_834d5f6a6bc090e19e7c4385762c2a0a/core.a(tasks.c.o)
                                                  /home/sean/.arduino15/packages/adafruit/tools/arm-none-eabi-gcc/9-2019q4/bin/../lib/gcc/arm-none-eabi/9.2.1/../../../../arm-none-eabi/lib/thumb/v7e-m+fp/hard/crt0.o
nrf_nvic_state                                    /home/sean/.cache/arduino/sketches/828FCB417685B578D8734FE54D6C0719/../../cores/adafruit_nrf52_feather52832_834d5f6a6bc090e19e7c4385762c2a0a/core.a(wiring.c.o)
                                                  /home/sean/.cache/arduino/sketches/828FCB417685B578D8734FE54D6C0719/../../cores/adafruit_nrf52_feather52832_834d5f6a6bc090e19e7c4385762c2a0a/core.a(port_cmsis_systick.c.o)
pcQueueGetName                                    /home/sean/.cache/arduino/sketches/828FCB417685B578D8734FE54D6C0719/../../cores/adafruit_nrf52_feather52832_834d5f6a6bc090e19e7c4385762c2a0a/core.a(queue.c.o)
pcTaskGetName                                     /home/sean/.cache/arduino/sketches/828FCB417685B578D8734FE54D6C0719/../../cores/adafruit_nrf52_feather52832_834d5f6a6bc090e19e7c4385762c2a0a/core.a(tasks.c.o)
pcTimerGetName                                    /home/sean/.cache/arduino/sketches/828FCB417685B578D8734FE54D6C0719/../../cores/adafruit_nrf52_feather52832_834d5f6a6bc090e19e7c4385762c2a0a/core.a(timers.c.o)
pendSVHook                                        /home/sean/.cache/arduino/sketches/828FCB417685B578D8734FE54D6C0719/../../cores/adafruit_nrf52_feather52832_834d5f6a6bc090e19e7c4385762c2a0a/core.a(hooks.c.o)
pinMode                                           /home/sean/.cache/arduino/sketches/828FCB417685B578D8734FE54D6C0719/../../cores/adafruit_nrf52_feather52832_834d5f6a6bc090e19e7c4385762c2a0a/core.a(wiring_digital.c.o)
                                                  /home/sean/.cache/arduino/sketches/828FCB417685B578D8734FE54D6C0719/core/variant.cpp.o
pvPortCalloc                                      /home/sean/.cache/arduino/sketches/828FCB417685B578D8734FE54D6C0719/../../cores/adafruit_nrf52_feather52832_834d5f6a6bc090e19e7c4385762c2a0a/core.a(heap_3.c.o)
pvPortMalloc                                      /home/sean/.cache/arduino/sketches/828FCB417685B578D8734FE54D6C0719/../../cores/adafruit_nrf52_feather52832_834d5f6a6bc090e19e7c4385762c2a0a/core.a(heap_3.c.o)
                                                  /home/sean/.cache/arduino/sketches/828FCB417685B578D8734FE54D6C0719/../../cores/adafruit_nrf52_feather52832_834d5f6a6bc090e19e7c4385762c2a0a/core.a(timers.c.o)
                                                  /home/sean/.cache/arduino/sketches/828FCB417685B578D8734FE54D6C0719/../../cores/adafruit_nrf52_feather52832_834d5f6a6bc090e19e7c4385762c2a0a/core.a(tasks.c.o)
                                                  /home/sean/.cache/arduino/sketches/828FCB417685B578D8734FE54D6C0719/../../cores/adafruit_nrf52_feather52832_834d5f6a6bc090e19e7c4385762c2a0a/core.a(queue.c.o)
pvPortRealloc                                     /home/sean/.cache/arduino/sketches/828FCB417685B578D8734FE54D6C0719/../../cores/adafruit_nrf52_feather52832_834d5f6a6bc090e19e7c4385762c2a0a/core.a(heap_3.c.o)
pvTaskIncrementMutexHeldCount                     /home/sean/.cache/arduino/sketches/828FCB417685B578D8734FE54D6C0719/../../cores/adafruit_nrf52_feather52832_834d5f6a6bc090e19e7c4385762c2a0a/core.a(tasks.c.o)
                                                  /home/sean/.cache/arduino/sketches/828FCB417685B578D8734FE54D6C0719/../../cores/adafruit_nrf52_feather52832_834d5f6a6bc090e19e7c4385762c2a0a/core.a(queue.c.o)
pvTimerGetTimerID                                 /home/sean/.cache/arduino/sketches/828FCB417685B578D8734FE54D6C0719/../../cores/adafruit_nrf52_feather52832_834d5f6a6bc090e19e7c4385762c2a0a/core.a(timers.c.o)
pxCurrentTCB                                      /home/sean/.cache/arduino/sketches/828FCB417685B578D8734FE54D6C0719/../../cores/adafruit_nrf52_feather52832_834d5f6a6bc090e19e7c4385762c2a0a/core.a(tasks.c.o)
                                                  /home/sean/.cache/arduino/sketches/828FCB417685B578D8734FE54D6C0719/../../cores/adafruit_nrf52_feather52832_834d5f6a6bc090e19e7c4385762c2a0a/core.a(port.c.o)
pxPortInitialiseStack                             /home/sean/.cache/arduino/sketches/828FCB417685B578D8734FE54D6C0719/../../cores/adafruit_nrf52_feather52832_834d5f6a6bc090e19e7c4385762c2a0a/core.a(port_cmsis.c.o)
                                                  /home/sean/.cache/arduino/sketches/828FCB417685B578D8734FE54D6C0719/../../cores/adafruit_nrf52_feather52832_834d5f6a6bc090e19e7c4385762c2a0a/core.a(tasks.c.o)
readCPUTemperature                                /home/sean/.cache/arduino/sketches/828FCB417685B578D8734FE54D6C0719/../../cores/adafruit_nrf52_feather52832_834d5f6a6bc090e19e7c4385762c2a0a/core.a(wiring.c.o)
readResetReason                                   /home/sean/.cache/arduino/sketches/828FCB417685B578D8734FE54D6C0719/../../cores/adafruit_nrf52_feather52832_834d5f6a6bc090e19e7c4385762c2a0a/core.a(wiring.c.o)
realloc                                           /home/sean/.arduino15/packages/adafruit/tools/arm-none-eabi-gcc/9-2019q4/bin/../lib/gcc/arm-none-eabi/9.2.1/../../../../arm-none-eabi/lib/thumb/v7e-m+fp/hard/libc.a(lib_a-realloc.o)
                                                  /home/sean/.cache/arduino/sketches/828FCB417685B578D8734FE54D6C0719/../../cores/adafruit_nrf52_feather52832_834d5f6a6bc090e19e7c4385762c2a0a/core.a(heap_3.c.o)
resumeLoop                                        /home/sean/.cache/arduino/sketches/828FCB417685B578D8734FE54D6C0719/../../cores/adafruit_nrf52_feather52832_834d5f6a6bc090e19e7c4385762c2a0a/core.a(main.cpp.o)
serialEvent()                                     /home/sean/.cache/arduino/sketches/828FCB417685B578D8734FE54D6C0719/../../cores/adafruit_nrf52_feather52832_834d5f6a6bc090e19e7c4385762c2a0a/core.a(Uart.cpp.o)
                                                  /home/sean/.cache/arduino/sketches/828FCB417685B578D8734FE54D6C0719/../../cores/adafruit_nrf52_feather52832_834d5f6a6bc090e19e7c4385762c2a0a/core.a(main.cpp.o)
serialEventRun()                                  /home/sean/.cache/arduino/sketches/828FCB417685B578D8734FE54D6C0719/../../cores/adafruit_nrf52_feather52832_834d5f6a6bc090e19e7c4385762c2a0a/core.a(Uart.cpp.o)
                                                  /home/sean/.cache/arduino/sketches/828FCB417685B578D8734FE54D6C0719/../../cores/adafruit_nrf52_feather52832_834d5f6a6bc090e19e7c4385762c2a0a/core.a(main.cpp.o)
setlocale                                         /home/sean/.arduino15/packages/adafruit/tools/arm-none-eabi-gcc/9-2019q4/bin/../lib/gcc/arm-none-eabi/9.2.1/../../../../arm-none-eabi/lib/thumb/v7e-m+fp/hard/libc.a(lib_a-locale.o)
setup                                             /home/sean/.cache/arduino/sketches/828FCB417685B578D8734FE54D6C0719/sketch/macro-blues.ino.cpp.o
                                                  /home/sean/.cache/arduino/sketches/828FCB417685B578D8734FE54D6C0719/../../cores/adafruit_nrf52_feather52832_834d5f6a6bc090e19e7c4385762c2a0a/core.a(main.cpp.o)
software_init_hook                                /home/sean/.arduino15/packages/adafruit/tools/arm-none-eabi-gcc/9-2019q4/bin/../lib/gcc/arm-none-eabi/9.2.1/../../../../arm-none-eabi/lib/thumb/v7e-m+fp/hard/crt0.o
sprintf                                           /home/sean/.arduino15/packages/adafruit/tools/arm-none-eabi-gcc/9-2019q4/bin/../lib/gcc/arm-none-eabi/9.2.1/../../../../arm-none-eabi/lib/thumb/v7e-m+fp/hard/libc.a(lib_a-sprintf.o)
                                                  /home/sean/.cache/arduino/sketches/828FCB417685B578D8734FE54D6C0719/../../cores/adafruit_nrf52_feather52832_834d5f6a6bc090e19e7c4385762c2a0a/core.a(tasks.c.o)
stpcpy                                            /home/sean/.arduino15/packages/adafruit/tools/arm-none-eabi-gcc/9-2019q4/bin/../lib/gcc/arm-none-eabi/9.2.1/../../../../arm-none-eabi/lib/thumb/v7e-m+fp/hard/libc.a(lib_a-stpcpy.o)
                                                  /home/sean/.cache/arduino/sketches/828FCB417685B578D8734FE54D6C0719/../../cores/adafruit_nrf52_feather52832_834d5f6a6bc090e19e7c4385762c2a0a/core.a(tasks.c.o)
strcmp                                            /home/sean/.arduino15/packages/adafruit/tools/arm-none-eabi-gcc/9-2019q4/bin/../lib/gcc/arm-none-eabi/9.2.1/../../../../arm-none-eabi/lib/thumb/v7e-m+fp/hard/libc.a(lib_a-strcmp.o)
                                                  /home/sean/.arduino15/packages/adafruit/tools/arm-none-eabi-gcc/9-2019q4/bin/../lib/gcc/arm-none-eabi/9.2.1/../../../../arm-none-eabi/lib/thumb/v7e-m+fp/hard/libc.a(lib_a-locale.o)
strlen                                            /home/sean/.arduino15/packages/adafruit/tools/arm-none-eabi-gcc/9-2019q4/bin/../lib/gcc/arm-none-eabi/9.2.1/../../../../arm-none-eabi/lib/thumb/v7e-m+fp/hard/libc.a(lib_a-strlen.o)
                                                  /home/sean/.arduino15/packages/adafruit/tools/arm-none-eabi-gcc/9-2019q4/bin/../lib/gcc/arm-none-eabi/9.2.1/../../../../arm-none-eabi/lib/thumb/v7e-m+fp/hard/libc.a(lib_a-svfiprintf.o)
                                                  /home/sean/.arduino15/packages/adafruit/tools/arm-none-eabi-gcc/9-2019q4/bin/../lib/gcc/arm-none-eabi/9.2.1/../../../../arm-none-eabi/lib/thumb/v7e-m+fp/hard/libc.a(lib_a-svfprintf.o)
                                                  /home/sean/.cache/arduino/sketches/828FCB417685B578D8734FE54D6C0719/../../cores/adafruit_nrf52_feather52832_834d5f6a6bc090e19e7c4385762c2a0a/core.a(tasks.c.o)
strncpy                                           /home/sean/.arduino15/packages/adafruit/tools/arm-none-eabi-gcc/9-2019q4/bin/../lib/gcc/arm-none-eabi/9.2.1/../../../../arm-none-eabi/lib/thumb/v7e-m+fp/hard/libc.a(lib_a-strncpy.o)
                                                  /home/sean/.arduino15/packages/adafruit/tools/arm-none-eabi-gcc/9-2019q4/bin/../lib/gcc/arm-none-eabi/9.2.1/../../../../arm-none-eabi/lib/thumb/v7e-m+fp/hard/libc.a(lib_a-svfiprintf.o)
                                                  /home/sean/.arduino15/packages/adafruit/tools/arm-none-eabi-gcc/9-2019q4/bin/../lib/gcc/arm-none-eabi/9.2.1/../../../../arm-none-eabi/lib/thumb/v7e-m+fp/hard/libc.a(lib_a-svfprintf.o)
suspendLoop                                       /home/sean/.cache/arduino/sketches/828FCB417685B578D8734FE54D6C0719/../../cores/adafruit_nrf52_feather52832_834d5f6a6bc090e19e7c4385762c2a0a/core.a(main.cpp.o)
svcHook                                           /home/sean/.cache/arduino/sketches/828FCB417685B578D8734FE54D6C0719/../../cores/adafruit_nrf52_feather52832_834d5f6a6bc090e19e7c4385762c2a0a/core.a(hooks.c.o)
sysTickHook                                       /home/sean/.cache/arduino/sketches/828FCB417685B578D8734FE54D6C0719/../../cores/adafruit_nrf52_feather52832_834d5f6a6bc090e19e7c4385762c2a0a/core.a(hooks.c.o)
systemOff                                         /home/sean/.cache/arduino/sketches/828FCB417685B578D8734FE54D6C0719/../../cores/adafruit_nrf52_feather52832_834d5f6a6bc090e19e7c4385762c2a0a/core.a(wiring.c.o)
ucQueueGetQueueType                               /home/sean/.cache/arduino/sketches/828FCB417685B578D8734FE54D6C0719/../../cores/adafruit_nrf52_feather52832_834d5f6a6bc090e19e7c4385762c2a0a/core.a(queue.c.o)
ulTaskNotifyTake                                  /home/sean/.cache/arduino/sketches/828FCB417685B578D8734FE54D6C0719/../../cores/adafruit_nrf52_feather52832_834d5f6a6bc090e19e7c4385762c2a0a/core.a(tasks.c.o)
uxListRemove                                      /home/sean/.cache/arduino/sketches/828FCB417685B578D8734FE54D6C0719/../../cores/adafruit_nrf52_feather52832_834d5f6a6bc090e19e7c4385762c2a0a/core.a(list.c.o)
                                                  /home/sean/.cache/arduino/sketches/828FCB417685B578D8734FE54D6C0719/../../cores/adafruit_nrf52_feather52832_834d5f6a6bc090e19e7c4385762c2a0a/core.a(timers.c.o)
                                                  /home/sean/.cache/arduino/sketches/828FCB417685B578D8734FE54D6C0719/../../cores/adafruit_nrf52_feather52832_834d5f6a6bc090e19e7c4385762c2a0a/core.a(tasks.c.o)
uxQueueGetQueueNumber                             /home/sean/.cache/arduino/sketches/828FCB417685B578D8734FE54D6C0719/../../cores/adafruit_nrf52_feather52832_834d5f6a6bc090e19e7c4385762c2a0a/core.a(queue.c.o)
uxQueueMessagesWaiting                            /home/sean/.cache/arduino/sketches/828FCB417685B578D8734FE54D6C0719/../../cores/adafruit_nrf52_feather52832_834d5f6a6bc090e19e7c4385762c2a0a/core.a(queue.c.o)
                                                  /home/sean/.cache/arduino/sketches/828FCB417685B578D8734FE54D6C0719/../../cores/adafruit_nrf52_feather52832_834d5f6a6bc090e19e7c4385762c2a0a/core.a(Uart.cpp.o)
uxQueueMessagesWaitingFromISR                     /home/sean/.cache/arduino/sketches/828FCB417685B578D8734FE54D6C0719/../../cores/adafruit_nrf52_feather52832_834d5f6a6bc090e19e7c4385762c2a0a/core.a(queue.c.o)
uxQueueSpacesAvailable                            /home/sean/.cache/arduino/sketches/828FCB417685B578D8734FE54D6C0719/../../cores/adafruit_nrf52_feather52832_834d5f6a6bc090e19e7c4385762c2a0a/core.a(queue.c.o)
uxTaskGetNumberOfTasks                            /home/sean/.cache/arduino/sketches/828FCB417685B578D8734FE54D6C0719/../../cores/adafruit_nrf52_feather52832_834d5f6a6bc090e19e7c4385762c2a0a/core.a(tasks.c.o)
uxTaskGetStackHighWaterMark                       /home/sean/.cache/arduino/sketches/828FCB417685B578D8734FE54D6C0719/../../cores/adafruit_nrf52_feather52832_834d5f6a6bc090e19e7c4385762c2a0a/core.a(tasks.c.o)
uxTaskGetSystemState                              /home/sean/.cache/arduino/sketches/828FCB417685B578D8734FE54D6C0719/../../cores/adafruit_nrf52_feather52832_834d5f6a6bc090e19e7c4385762c2a0a/core.a(tasks.c.o)
uxTaskGetTaskNumber                               /home/sean/.cache/arduino/sketches/828FCB417685B578D8734FE54D6C0719/../../cores/adafruit_nrf52_feather52832_834d5f6a6bc090e19e7c4385762c2a0a/core.a(tasks.c.o)
uxTaskPriorityGet                                 /home/sean/.cache/arduino/sketches/828FCB417685B578D8734FE54D6C0719/../../cores/adafruit_nrf52_feather52832_834d5f6a6bc090e19e7c4385762c2a0a/core.a(tasks.c.o)
uxTaskPriorityGetFromISR                          /home/sean/.cache/arduino/sketches/828FCB417685B578D8734FE54D6C0719/../../cores/adafruit_nrf52_feather52832_834d5f6a6bc090e19e7c4385762c2a0a/core.a(tasks.c.o)
uxTaskResetEventItemValue                         /home/sean/.cache/arduino/sketches/828FCB417685B578D8734FE54D6C0719/../../cores/adafruit_nrf52_feather52832_834d5f6a6bc090e19e7c4385762c2a0a/core.a(tasks.c.o)
uxTimerGetTimerNumber                             /home/sean/.cache/arduino/sketches/828FCB417685B578D8734FE54D6C0719/../../cores/adafruit_nrf52_feather52832_834d5f6a6bc090e19e7c4385762c2a0a/core.a(timers.c.o)
vApplicationGetIdleTaskMemory                     /home/sean/.cache/arduino/sketches/828FCB417685B578D8734FE54D6C0719/../../cores/adafruit_nrf52_feather52832_834d5f6a6bc090e19e7c4385762c2a0a/core.a(rtos.cpp.o)
                                                  /home/sean/.cache/arduino/sketches/828FCB417685B578D8734FE54D6C0719/../../cores/adafruit_nrf52_feather52832_834d5f6a6bc090e19e7c4385762c2a0a/core.a(tasks.c.o)
vApplicationGetTimerTaskMemory                    /home/sean/.cache/arduino/sketches/828FCB417685B578D8734FE54D6C0719/../../cores/adafruit_nrf52_feather52832_834d5f6a6bc090e19e7c4385762c2a0a/core.a(rtos.cpp.o)
                                                  /home/sean/.cache/arduino/sketches/828FCB417685B578D8734FE54D6C0719/../../cores/adafruit_nrf52_feather52832_834d5f6a6bc090e19e7c4385762c2a0a/core.a(timers.c.o)
vApplicationIdleHook                              /home/sean/.cache/arduino/sketches/828FCB417685B578D8734FE54D6C0719/../../cores/adafruit_nrf52_feather52832_834d5f6a6bc090e19e7c4385762c2a0a/core.a(hooks.c.o)
                                                  /home/sean/.cache/arduino/sketches/828FCB417685B578D8734FE54D6C0719/../../cores/adafruit_nrf52_feather52832_834d5f6a6bc090e19e7c4385762c2a0a/core.a(tasks.c.o)
vApplicationMallocFailedHook                      /home/sean/.cache/arduino/sketches/828FCB417685B578D8734FE54D6C0719/../../cores/adafruit_nrf52_feather52832_834d5f6a6bc090e19e7c4385762c2a0a/core.a(rtos.cpp.o)
                                                  /home/sean/.cache/arduino/sketches/828FCB417685B578D8734FE54D6C0719/../../cores/adafruit_nrf52_feather52832_834d5f6a6bc090e19e7c4385762c2a0a/core.a(heap_3.c.o)
vApplicationStackOverflowHook                     /home/sean/.cache/arduino/sketches/828FCB417685B578D8734FE54D6C0719/../../cores/adafruit_nrf52_feather52832_834d5f6a6bc090e19e7c4385762c2a0a/core.a(rtos.cpp.o)
                                                  /home/sean/.cache/arduino/sketches/828FCB417685B578D8734FE54D6C0719/../../cores/adafruit_nrf52_feather52832_834d5f6a6bc090e19e7c4385762c2a0a/core.a(tasks.c.o)
vListInitialise                                   /home/sean/.cache/arduino/sketches/828FCB417685B578D8734FE54D6C0719/../../cores/adafruit_nrf52_feather52832_834d5f6a6bc090e19e7c4385762c2a0a/core.a(list.c.o)
                                                  /home/sean/.cache/arduino/sketches/828FCB417685B578D8734FE54D6C0719/../../cores/adafruit_nrf52_feather52832_834d5f6a6bc090e19e7c4385762c2a0a/core.a(timers.c.o)
                                                  /home/sean/.cache/arduino/sketches/828FCB417685B578D8734FE54D6C0719/../../cores/adafruit_nrf52_feather52832_834d5f6a6bc090e19e7c4385762c2a0a/core.a(tasks.c.o)
                                                  /home/sean/.cache/arduino/sketches/828FCB417685B578D8734FE54D6C0719/../../cores/adafruit_nrf52_feather52832_834d5f6a6bc090e19e7c4385762c2a0a/core.a(queue.c.o)
vListInitialiseItem                               /home/sean/.cache/arduino/sketches/828FCB417685B578D8734FE54D6C0719/../../cores/adafruit_nrf52_feather52832_834d5f6a6bc090e19e7c4385762c2a0a/core.a(list.c.o)
                                                  /home/sean/.cache/arduino/sketches/828FCB417685B578D8734FE54D6C0719/../../cores/adafruit_nrf52_feather52832_834d5f6a6bc090e19e7c4385762c2a0a/core.a(timers.c.o)
                                                  /home/sean/.cache/arduino/sketches/828FCB417685B578D8734FE54D6C0719/../../cores/adafruit_nrf52_feather52832_834d5f6a6bc090e19e7c4385762c2a0a/core.a(tasks.c.o)
vListInsert                                       /home/sean/.cache/arduino/sketches/828FCB417685B578D8734FE54D6C0719/../../cores/adafruit_nrf52_feather52832_834d5f6a6bc090e19e7c4385762c2a0a/core.a(list.c.o)
                                                  /home/sean/.cache/arduino/sketches/828FCB417685B578D8734FE54D6C0719/../../cores/adafruit_nrf52_feather52832_834d5f6a6bc090e19e7c4385762c2a0a/core.a(timers.c.o)
                                                  /home/sean/.cache/arduino/sketches/828FCB417685B578D8734FE54D6C0719/../../cores/adafruit_nrf52_feather52832_834d5f6a6bc090e19e7c4385762c2a0a/core.a(tasks.c.o)
vListInsertEnd                                    /home/sean/.cache/arduino/sketches/828FCB417685B578D8734FE54D6C0719/../../cores/adafruit_nrf52_feather52832_834d5f6a6bc090e19e7c4385762c2a0a/core.a(list.c.o)
                                                  /home/sean/.cache/arduino/sketches/828FCB417685B578D8734FE54D6C0719/../../cores/adafruit_nrf52_feather52832_834d5f6a6bc090e19e7c4385762c2a0a/core.a(tasks.c.o)
vPortEndScheduler                                 /home/sean/.cache/arduino/sketches/828FCB417685B578D8734FE54D6C0719/../../cores/adafruit_nrf52_feather52832_834d5f6a6bc090e19e7c4385762c2a0a/core.a(port_cmsis.c.o)
                                                  /home/sean/.cache/arduino/sketches/828FCB417685B578D8734FE54D6C0719/../../cores/adafruit_nrf52_feather52832_834d5f6a6bc090e19e7c4385762c2a0a/core.a(tasks.c.o)
vPortEnterCritical                                /home/sean/.cache/arduino/sketches/828FCB417685B578D8734FE54D6C0719/../../cores/adafruit_nrf52_feather52832_834d5f6a6bc090e19e7c4385762c2a0a/core.a(port_cmsis.c.o)
                                                  /home/sean/.cache/arduino/sketches/828FCB417685B578D8734FE54D6C0719/../../cores/adafruit_nrf52_feather52832_834d5f6a6bc090e19e7c4385762c2a0a/core.a(timers.c.o)
                                                  /home/sean/.cache/arduino/sketches/828FCB417685B578D8734FE54D6C0719/../../cores/adafruit_nrf52_feather52832_834d5f6a6bc090e19e7c4385762c2a0a/core.a(tasks.c.o)
                                                  /home/sean/.cache/arduino/sketches/828FCB417685B578D8734FE54D6C0719/../../cores/adafruit_nrf52_feather52832_834d5f6a6bc090e19e7c4385762c2a0a/core.a(queue.c.o)
                                                  /home/sean/.cache/arduino/sketches/828FCB417685B578D8734FE54D6C0719/../../cores/adafruit_nrf52_feather52832_834d5f6a6bc090e19e7c4385762c2a0a/core.a(AdaCallback.c.o)
vPortExitCritical                                 /home/sean/.cache/arduino/sketches/828FCB417685B578D8734FE54D6C0719/../../cores/adafruit_nrf52_feather52832_834d5f6a6bc090e19e7c4385762c2a0a/core.a(port_cmsis.c.o)
                                                  /home/sean/.cache/arduino/sketches/828FCB417685B578D8734FE54D6C0719/../../cores/adafruit_nrf52_feather52832_834d5f6a6bc090e19e7c4385762c2a0a/core.a(timers.c.o)
                                                  /home/sean/.cache/arduino/sketches/828FCB417685B578D8734FE54D6C0719/../../cores/adafruit_nrf52_feather52832_834d5f6a6bc090e19e7c4385762c2a0a/core.a(tasks.c.o)
                                                  /home/sean/.cache/arduino/sketches/828FCB417685B578D8734FE54D6C0719/../../cores/adafruit_nrf52_feather52832_834d5f6a6bc090e19e7c4385762c2a0a/core.a(queue.c.o)
                                                  /home/sean/.cache/arduino/sketches/828FCB417685B578D8734FE54D6C0719/../../cores/adafruit_nrf52_feather52832_834d5f6a6bc090e19e7c4385762c2a0a/core.a(AdaCallback.c.o)
vPortFree                                         /home/sean/.cache/arduino/sketches/828FCB417685B578D8734FE54D6C0719/../../cores/adafruit_nrf52_feather52832_834d5f6a6bc090e19e7c4385762c2a0a/core.a(heap_3.c.o)
                                                  /home/sean/.cache/arduino/sketches/828FCB417685B578D8734FE54D6C0719/../../cores/adafruit_nrf52_feather52832_834d5f6a6bc090e19e7c4385762c2a0a/core.a(timers.c.o)
                                                  /home/sean/.cache/arduino/sketches/828FCB417685B578D8734FE54D6C0719/../../cores/adafruit_nrf52_feather52832_834d5f6a6bc090e19e7c4385762c2a0a/core.a(tasks.c.o)
                                                  /home/sean/.cache/arduino/sketches/828FCB417685B578D8734FE54D6C0719/../../cores/adafruit_nrf52_feather52832_834d5f6a6bc090e19e7c4385762c2a0a/core.a(queue.c.o)
vPortSetupTimerInterrupt                          /home/sean/.cache/arduino/sketches/828FCB417685B578D8734FE54D6C0719/../../cores/adafruit_nrf52_feather52832_834d5f6a6bc090e19e7c4385762c2a0a/core.a(port_cmsis_systick.c.o)
                                                  /home/sean/.cache/arduino/sketches/828FCB417685B578D8734FE54D6C0719/../../cores/adafruit_nrf52_feather52832_834d5f6a6bc090e19e7c4385762c2a0a/core.a(port_cmsis.c.o)
vPortStartFirstTask                               /home/sean/.cache/arduino/sketches/828FCB417685B578D8734FE54D6C0719/../../cores/adafruit_nrf52_feather52832_834d5f6a6bc090e19e7c4385762c2a0a/core.a(port.c.o)
                                                  /home/sean/.cache/arduino/sketches/828FCB417685B578D8734FE54D6C0719/../../cores/adafruit_nrf52_feather52832_834d5f6a6bc090e19e7c4385762c2a0a/core.a(port_cmsis.c.o)
vPortSuppressTicksAndSleep                        /home/sean/.cache/arduino/sketches/828FCB417685B578D8734FE54D6C0719/../../cores/adafruit_nrf52_feather52832_834d5f6a6bc090e19e7c4385762c2a0a/core.a(port_cmsis_systick.c.o)
                                                  /home/sean/.cache/arduino/sketches/828FCB417685B578D8734FE54D6C0719/../../cores/adafruit_nrf52_feather52832_834d5f6a6bc090e19e7c4385762c2a0a/core.a(tasks.c.o)
vQueueAddToRegistry                               /home/sean/.cache/arduino/sketches/828FCB417685B578D8734FE54D6C0719/../../cores/adafruit_nrf52_feather52832_834d5f6a6bc090e19e7c4385762c2a0a/core.a(queue.c.o)
                                                  /home/sean/.cache/arduino/sketches/828FCB417685B578D8734FE54D6C0719/../../cores/adafruit_nrf52_feather52832_834d5f6a6bc090e19e7c4385762c2a0a/core.a(timers.c.o)
vQueueDelete                                      /home/sean/.cache/arduino/sketches/828FCB417685B578D8734FE54D6C0719/../../cores/adafruit_nrf52_feather52832_834d5f6a6bc090e19e7c4385762c2a0a/core.a(queue.c.o)
                                                  /home/sean/.cache/arduino/sketches/828FCB417685B578D8734FE54D6C0719/../../cores/adafruit_nrf52_feather52832_834d5f6a6bc090e19e7c4385762c2a0a/core.a(Uart.cpp.o)
                                                  /home/sean/.cache/arduino/sketches/828FCB417685B578D8734FE54D6C0719/../../cores/adafruit_nrf52_feather52832_834d5f6a6bc090e19e7c4385762c2a0a/core.a(AdaCallback.c.o)
vQueueSetQueueNumber                              /home/sean/.cache/arduino/sketches/828FCB417685B578D8734FE54D6C0719/../../cores/adafruit_nrf52_feather52832_834d5f6a6bc090e19e7c4385762c2a0a/core.a(queue.c.o)
vQueueUnregisterQueue                             /home/sean/.cache/arduino/sketches/828FCB417685B578D8734FE54D6C0719/../../cores/adafruit_nrf52_feather52832_834d5f6a6bc090e19e7c4385762c2a0a/core.a(queue.c.o)
vQueueWaitForMessageRestricted                    /home/sean/.cache/arduino/sketches/828FCB417685B578D8734FE54D6C0719/../../cores/adafruit_nrf52_feather52832_834d5f6a6bc090e19e7c4385762c2a0a/core.a(queue.c.o)
                                                  /home/sean/.cache/arduino/sketches/828FCB417685B578D8734FE54D6C0719/../../cores/adafruit_nrf52_feather52832_834d5f6a6bc090e19e7c4385762c2a0a/core.a(timers.c.o)
vTaskDelay                                        /home/sean/.cache/arduino/sketches/828FCB417685B578D8734FE54D6C0719/../../cores/adafruit_nrf52_feather52832_834d5f6a6bc090e19e7c4385762c2a0a/core.a(tasks.c.o)
vTaskDelayUntil                                   /home/sean/.cache/arduino/sketches/828FCB417685B578D8734FE54D6C0719/../../cores/adafruit_nrf52_feather52832_834d5f6a6bc090e19e7c4385762c2a0a/core.a(tasks.c.o)
vTaskDelete                                       /home/sean/.cache/arduino/sketches/828FCB417685B578D8734FE54D6C0719/../../cores/adafruit_nrf52_feather52832_834d5f6a6bc090e19e7c4385762c2a0a/core.a(tasks.c.o)
vTaskEndScheduler                                 /home/sean/.cache/arduino/sketches/828FCB417685B578D8734FE54D6C0719/../../cores/adafruit_nrf52_feather52832_834d5f6a6bc090e19e7c4385762c2a0a/core.a(tasks.c.o)
vTaskGetInfo                                      /home/sean/.cache/arduino/sketches/828FCB417685B578D8734FE54D6C0719/../../cores/adafruit_nrf52_feather52832_834d5f6a6bc090e19e7c4385762c2a0a/core.a(tasks.c.o)
vTaskInternalSetTimeOutState                      /home/sean/.cache/arduino/sketches/828FCB417685B578D8734FE54D6C0719/../../cores/adafruit_nrf52_feather52832_834d5f6a6bc090e19e7c4385762c2a0a/core.a(tasks.c.o)
                                                  /home/sean/.cache/arduino/sketches/828FCB417685B578D8734FE54D6C0719/../../cores/adafruit_nrf52_feather52832_834d5f6a6bc090e19e7c4385762c2a0a/core.a(queue.c.o)
vTaskList                                         /home/sean/.cache/arduino/sketches/828FCB417685B578D8734FE54D6C0719/../../cores/adafruit_nrf52_feather52832_834d5f6a6bc090e19e7c4385762c2a0a/core.a(tasks.c.o)
vTaskMissedYield                                  /home/sean/.cache/arduino/sketches/828FCB417685B578D8734FE54D6C0719/../../cores/adafruit_nrf52_feather52832_834d5f6a6bc090e19e7c4385762c2a0a/core.a(tasks.c.o)
                                                  /home/sean/.cache/arduino/sketches/828FCB417685B578D8734FE54D6C0719/../../cores/adafruit_nrf52_feather52832_834d5f6a6bc090e19e7c4385762c2a0a/core.a(queue.c.o)
vTaskNotifyGiveFromISR                            /home/sean/.cache/arduino/sketches/828FCB417685B578D8734FE54D6C0719/../../cores/adafruit_nrf52_feather52832_834d5f6a6bc090e19e7c4385762c2a0a/core.a(tasks.c.o)
vTaskPlaceOnEventList                             /home/sean/.cache/arduino/sketches/828FCB417685B578D8734FE54D6C0719/../../cores/adafruit_nrf52_feather52832_834d5f6a6bc090e19e7c4385762c2a0a/core.a(tasks.c.o)
                                                  /home/sean/.cache/arduino/sketches/828FCB417685B578D8734FE54D6C0719/../../cores/adafruit_nrf52_feather52832_834d5f6a6bc090e19e7c4385762c2a0a/core.a(queue.c.o)
vTaskPlaceOnEventListRestricted                   /home/sean/.cache/arduino/sketches/828FCB417685B578D8734FE54D6C0719/../../cores/adafruit_nrf52_feather52832_834d5f6a6bc090e19e7c4385762c2a0a/core.a(tasks.c.o)
                                                  /home/sean/.cache/arduino/sketches/828FCB417685B578D8734FE54D6C0719/../../cores/adafruit_nrf52_feather52832_834d5f6a6bc090e19e7c4385762c2a0a/core.a(queue.c.o)
vTaskPlaceOnUnorderedEventList                    /home/sean/.cache/arduino/sketches/828FCB417685B578D8734FE54D6C0719/../../cores/adafruit_nrf52_feather52832_834d5f6a6bc090e19e7c4385762c2a0a/core.a(tasks.c.o)
vTaskPriorityDisinheritAfterTimeout               /home/sean/.cache/arduino/sketches/828FCB417685B578D8734FE54D6C0719/../../cores/adafruit_nrf52_feather52832_834d5f6a6bc090e19e7c4385762c2a0a/core.a(tasks.c.o)
                                                  /home/sean/.cache/arduino/sketches/828FCB417685B578D8734FE54D6C0719/../../cores/adafruit_nrf52_feather52832_834d5f6a6bc090e19e7c4385762c2a0a/core.a(queue.c.o)
vTaskPrioritySet                                  /home/sean/.cache/arduino/sketches/828FCB417685B578D8734FE54D6C0719/../../cores/adafruit_nrf52_feather52832_834d5f6a6bc090e19e7c4385762c2a0a/core.a(tasks.c.o)
vTaskRemoveFromUnorderedEventList                 /home/sean/.cache/arduino/sketches/828FCB417685B578D8734FE54D6C0719/../../cores/adafruit_nrf52_feather52832_834d5f6a6bc090e19e7c4385762c2a0a/core.a(tasks.c.o)
vTaskResume                                       /home/sean/.cache/arduino/sketches/828FCB417685B578D8734FE54D6C0719/../../cores/adafruit_nrf52_feather52832_834d5f6a6bc090e19e7c4385762c2a0a/core.a(tasks.c.o)
                                                  /home/sean/.cache/arduino/sketches/828FCB417685B578D8734FE54D6C0719/../../cores/adafruit_nrf52_feather52832_834d5f6a6bc090e19e7c4385762c2a0a/core.a(AdaCallback.c.o)
                                                  /home/sean/.cache/arduino/sketches/828FCB417685B578D8734FE54D6C0719/../../cores/adafruit_nrf52_feather52832_834d5f6a6bc090e19e7c4385762c2a0a/core.a(main.cpp.o)
vTaskSetTaskNumber                                /home/sean/.cache/arduino/sketches/828FCB417685B578D8734FE54D6C0719/../../cores/adafruit_nrf52_feather52832_834d5f6a6bc090e19e7c4385762c2a0a/core.a(tasks.c.o)
vTaskSetTimeOutState                              /home/sean/.cache/arduino/sketches/828FCB417685B578D8734FE54D6C0719/../../cores/adafruit_nrf52_feather52832_834d5f6a6bc090e19e7c4385762c2a0a/core.a(tasks.c.o)
vTaskStartScheduler                               /home/sean/.cache/arduino/sketches/828FCB417685B578D8734FE54D6C0719/../../cores/adafruit_nrf52_feather52832_834d5f6a6bc090e19e7c4385762c2a0a/core.a(tasks.c.o)
                                                  /home/sean/.cache/arduino/sketches/828FCB417685B578D8734FE54D6C0719/../../cores/adafruit_nrf52_feather52832_834d5f6a6bc090e19e7c4385762c2a0a/core.a(main.cpp.o)
vTaskStepTick                                     /home/sean/.cache/arduino/sketches/828FCB417685B578D8734FE54D6C0719/../../cores/adafruit_nrf52_feather52832_834d5f6a6bc090e19e7c4385762c2a0a/core.a(tasks.c.o)
                                                  /home/sean/.cache/arduino/sketches/828FCB417685B578D8734FE54D6C0719/../../cores/adafruit_nrf52_feather52832_834d5f6a6bc090e19e7c4385762c2a0a/core.a(port_cmsis_systick.c.o)
vTaskSuspend                                      /home/sean/.cache/arduino/sketches/828FCB417685B578D8734FE54D6C0719/../../cores/adafruit_nrf52_feather52832_834d5f6a6bc090e19e7c4385762c2a0a/core.a(tasks.c.o)
                                                  /home/sean/.cache/arduino/sketches/828FCB417685B578D8734FE54D6C0719/../../cores/adafruit_nrf52_feather52832_834d5f6a6bc090e19e7c4385762c2a0a/core.a(AdaCallback.c.o)
                                                  /home/sean/.cache/arduino/sketches/828FCB417685B578D8734FE54D6C0719/../../cores/adafruit_nrf52_feather52832_834d5f6a6bc090e19e7c4385762c2a0a/core.a(main.cpp.o)
vTaskSuspendAll                                   /home/sean/.cache/arduino/sketches/828FCB417685B578D8734FE54D6C0719/../../cores/adafruit_nrf52_feather52832_834d5f6a6bc090e19e7c4385762c2a0a/core.a(tasks.c.o)
                                                  /home/sean/.cache/arduino/sketches/828FCB417685B578D8734FE54D6C0719/../../cores/adafruit_nrf52_feather52832_834d5f6a6bc090e19e7c4385762c2a0a/core.a(timers.c.o)
                                                  /home/sean/.cache/arduino/sketches/828FCB417685B578D8734FE54D6C0719/../../cores/adafruit_nrf52_feather52832_834d5f6a6bc090e19e7c4385762c2a0a/core.a(queue.c.o)
                                                  /home/sean/.cache/arduino/sketches/828FCB417685B578D8734FE54D6C0719/../../cores/adafruit_nrf52_feather52832_834d5f6a6bc090e19e7c4385762c2a0a/core.a(heap_3.c.o)
vTaskSwitchContext                                /home/sean/.cache/arduino/sketches/828FCB417685B578D8734FE54D6C0719/../../cores/adafruit_nrf52_feather52832_834d5f6a6bc090e19e7c4385762c2a0a/core.a(tasks.c.o)
                                                  /home/sean/.cache/arduino/sketches/828FCB417685B578D8734FE54D6C0719/../../cores/adafruit_nrf52_feather52832_834d5f6a6bc090e19e7c4385762c2a0a/core.a(port.c.o)
vTimerSetTimerID                                  /home/sean/.cache/arduino/sketches/828FCB417685B578D8734FE54D6C0719/../../cores/adafruit_nrf52_feather52832_834d5f6a6bc090e19e7c4385762c2a0a/core.a(timers.c.o)
vTimerSetTimerNumber                              /home/sean/.cache/arduino/sketches/828FCB417685B578D8734FE54D6C0719/../../cores/adafruit_nrf52_feather52832_834d5f6a6bc090e19e7c4385762c2a0a/core.a(timers.c.o)
vtable for Uart                                   /home/sean/.cache/arduino/sketches/828FCB417685B578D8734FE54D6C0719/../../cores/adafruit_nrf52_feather52832_834d5f6a6bc090e19e7c4385762c2a0a/core.a(Uart.cpp.o)
waitForEvent                                      /home/sean/.cache/arduino/sketches/828FCB417685B578D8734FE54D6C0719/../../cores/adafruit_nrf52_feather52832_834d5f6a6bc090e19e7c4385762c2a0a/core.a(wiring.c.o)
xPortStartScheduler                               /home/sean/.cache/arduino/sketches/828FCB417685B578D8734FE54D6C0719/../../cores/adafruit_nrf52_feather52832_834d5f6a6bc090e19e7c4385762c2a0a/core.a(port_cmsis.c.o)
                                                  /home/sean/.cache/arduino/sketches/828FCB417685B578D8734FE54D6C0719/../../cores/adafruit_nrf52_feather52832_834d5f6a6bc090e19e7c4385762c2a0a/core.a(tasks.c.o)
xQueueCreateCountingSemaphore                     /home/sean/.cache/arduino/sketches/828FCB417685B578D8734FE54D6C0719/../../cores/adafruit_nrf52_feather52832_834d5f6a6bc090e19e7c4385762c2a0a/core.a(queue.c.o)
xQueueCreateCountingSemaphoreStatic               /home/sean/.cache/arduino/sketches/828FCB417685B578D8734FE54D6C0719/../../cores/adafruit_nrf52_feather52832_834d5f6a6bc090e19e7c4385762c2a0a/core.a(queue.c.o)
xQueueCreateMutex                                 /home/sean/.cache/arduino/sketches/828FCB417685B578D8734FE54D6C0719/../../cores/adafruit_nrf52_feather52832_834d5f6a6bc090e19e7c4385762c2a0a/core.a(queue.c.o)
xQueueCreateMutexStatic                           /home/sean/.cache/arduino/sketches/828FCB417685B578D8734FE54D6C0719/../../cores/adafruit_nrf52_feather52832_834d5f6a6bc090e19e7c4385762c2a0a/core.a(queue.c.o)
xQueueGenericCreate                               /home/sean/.cache/arduino/sketches/828FCB417685B578D8734FE54D6C0719/../../cores/adafruit_nrf52_feather52832_834d5f6a6bc090e19e7c4385762c2a0a/core.a(queue.c.o)
                                                  /home/sean/.cache/arduino/sketches/828FCB417685B578D8734FE54D6C0719/../../cores/adafruit_nrf52_feather52832_834d5f6a6bc090e19e7c4385762c2a0a/core.a(Uart.cpp.o)
                                                  /home/sean/.cache/arduino/sketches/828FCB417685B578D8734FE54D6C0719/../../cores/adafruit_nrf52_feather52832_834d5f6a6bc090e19e7c4385762c2a0a/core.a(AdaCallback.c.o)
xQueueGenericCreateStatic                         /home/sean/.cache/arduino/sketches/828FCB417685B578D8734FE54D6C0719/../../cores/adafruit_nrf52_feather52832_834d5f6a6bc090e19e7c4385762c2a0a/core.a(queue.c.o)
                                                  /home/sean/.cache/arduino/sketches/828FCB417685B578D8734FE54D6C0719/../../cores/adafruit_nrf52_feather52832_834d5f6a6bc090e19e7c4385762c2a0a/core.a(timers.c.o)
xQueueGenericReset                                /home/sean/.cache/arduino/sketches/828FCB417685B578D8734FE54D6C0719/../../cores/adafruit_nrf52_feather52832_834d5f6a6bc090e19e7c4385762c2a0a/core.a(queue.c.o)
xQueueGenericSend                                 /home/sean/.cache/arduino/sketches/828FCB417685B578D8734FE54D6C0719/../../cores/adafruit_nrf52_feather52832_834d5f6a6bc090e19e7c4385762c2a0a/core.a(queue.c.o)
                                                  /home/sean/.cache/arduino/sketches/828FCB417685B578D8734FE54D6C0719/../../cores/adafruit_nrf52_feather52832_834d5f6a6bc090e19e7c4385762c2a0a/core.a(timers.c.o)
                                                  /home/sean/.cache/arduino/sketches/828FCB417685B578D8734FE54D6C0719/../../cores/adafruit_nrf52_feather52832_834d5f6a6bc090e19e7c4385762c2a0a/core.a(Uart.cpp.o)
                                                  /home/sean/.cache/arduino/sketches/828FCB417685B578D8734FE54D6C0719/../../cores/adafruit_nrf52_feather52832_834d5f6a6bc090e19e7c4385762c2a0a/core.a(AdaCallback.c.o)
xQueueGenericSendFromISR                          /home/sean/.cache/arduino/sketches/828FCB417685B578D8734FE54D6C0719/../../cores/adafruit_nrf52_feather52832_834d5f6a6bc090e19e7c4385762c2a0a/core.a(queue.c.o)
                                                  /home/sean/.cache/arduino/sketches/828FCB417685B578D8734FE54D6C0719/../../cores/adafruit_nrf52_feather52832_834d5f6a6bc090e19e7c4385762c2a0a/core.a(timers.c.o)
                                                  /home/sean/.cache/arduino/sketches/828FCB417685B578D8734FE54D6C0719/../../cores/adafruit_nrf52_feather52832_834d5f6a6bc090e19e7c4385762c2a0a/core.a(AdaCallback.c.o)
xQueueGiveFromISR                                 /home/sean/.cache/arduino/sketches/828FCB417685B578D8734FE54D6C0719/../../cores/adafruit_nrf52_feather52832_834d5f6a6bc090e19e7c4385762c2a0a/core.a(queue.c.o)
                                                  /home/sean/.cache/arduino/sketches/828FCB417685B578D8734FE54D6C0719/../../cores/adafruit_nrf52_feather52832_834d5f6a6bc090e19e7c4385762c2a0a/core.a(Uart.cpp.o)
xQueueGiveMutexRecursive                          /home/sean/.cache/arduino/sketches/828FCB417685B578D8734FE54D6C0719/../../cores/adafruit_nrf52_feather52832_834d5f6a6bc090e19e7c4385762c2a0a/core.a(queue.c.o)
xQueueIsQueueEmptyFromISR                         /home/sean/.cache/arduino/sketches/828FCB417685B578D8734FE54D6C0719/../../cores/adafruit_nrf52_feather52832_834d5f6a6bc090e19e7c4385762c2a0a/core.a(queue.c.o)
xQueueIsQueueFullFromISR                          /home/sean/.cache/arduino/sketches/828FCB417685B578D8734FE54D6C0719/../../cores/adafruit_nrf52_feather52832_834d5f6a6bc090e19e7c4385762c2a0a/core.a(queue.c.o)
xQueuePeek                                        /home/sean/.cache/arduino/sketches/828FCB417685B578D8734FE54D6C0719/../../cores/adafruit_nrf52_feather52832_834d5f6a6bc090e19e7c4385762c2a0a/core.a(queue.c.o)
xQueuePeekFromISR                                 /home/sean/.cache/arduino/sketches/828FCB417685B578D8734FE54D6C0719/../../cores/adafruit_nrf52_feather52832_834d5f6a6bc090e19e7c4385762c2a0a/core.a(queue.c.o)
xQueueReceive                                     /home/sean/.cache/arduino/sketches/828FCB417685B578D8734FE54D6C0719/../../cores/adafruit_nrf52_feather52832_834d5f6a6bc090e19e7c4385762c2a0a/core.a(queue.c.o)
                                                  /home/sean/.cache/arduino/sketches/828FCB417685B578D8734FE54D6C0719/../../cores/adafruit_nrf52_feather52832_834d5f6a6bc090e19e7c4385762c2a0a/core.a(timers.c.o)
                                                  /home/sean/.cache/arduino/sketches/828FCB417685B578D8734FE54D6C0719/../../cores/adafruit_nrf52_feather52832_834d5f6a6bc090e19e7c4385762c2a0a/core.a(AdaCallback.c.o)
xQueueReceiveFromISR                              /home/sean/.cache/arduino/sketches/828FCB417685B578D8734FE54D6C0719/../../cores/adafruit_nrf52_feather52832_834d5f6a6bc090e19e7c4385762c2a0a/core.a(queue.c.o)
xQueueRegistry                                    /home/sean/.cache/arduino/sketches/828FCB417685B578D8734FE54D6C0719/../../cores/adafruit_nrf52_feather52832_834d5f6a6bc090e19e7c4385762c2a0a/core.a(queue.c.o)
xQueueSemaphoreTake                               /home/sean/.cache/arduino/sketches/828FCB417685B578D8734FE54D6C0719/../../cores/adafruit_nrf52_feather52832_834d5f6a6bc090e19e7c4385762c2a0a/core.a(queue.c.o)
                                                  /home/sean/.cache/arduino/sketches/828FCB417685B578D8734FE54D6C0719/../../cores/adafruit_nrf52_feather52832_834d5f6a6bc090e19e7c4385762c2a0a/core.a(Uart.cpp.o)
xQueueTakeMutexRecursive                          /home/sean/.cache/arduino/sketches/828FCB417685B578D8734FE54D6C0719/../../cores/adafruit_nrf52_feather52832_834d5f6a6bc090e19e7c4385762c2a0a/core.a(queue.c.o)
xTaskCheckForTimeOut                              /home/sean/.cache/arduino/sketches/828FCB417685B578D8734FE54D6C0719/../../cores/adafruit_nrf52_feather52832_834d5f6a6bc090e19e7c4385762c2a0a/core.a(tasks.c.o)
                                                  /home/sean/.cache/arduino/sketches/828FCB417685B578D8734FE54D6C0719/../../cores/adafruit_nrf52_feather52832_834d5f6a6bc090e19e7c4385762c2a0a/core.a(queue.c.o)
xTaskCreate                                       /home/sean/.cache/arduino/sketches/828FCB417685B578D8734FE54D6C0719/../../cores/adafruit_nrf52_feather52832_834d5f6a6bc090e19e7c4385762c2a0a/core.a(tasks.c.o)
                                                  /home/sean/.cache/arduino/sketches/828FCB417685B578D8734FE54D6C0719/../../cores/adafruit_nrf52_feather52832_834d5f6a6bc090e19e7c4385762c2a0a/core.a(AdaCallback.c.o)
                                                  /home/sean/.cache/arduino/sketches/828FCB417685B578D8734FE54D6C0719/../../cores/adafruit_nrf52_feather52832_834d5f6a6bc090e19e7c4385762c2a0a/core.a(rtos.cpp.o)
                                                  /home/sean/.cache/arduino/sketches/828FCB417685B578D8734FE54D6C0719/../../cores/adafruit_nrf52_feather52832_834d5f6a6bc090e19e7c4385762c2a0a/core.a(main.cpp.o)
xTaskCreateStatic                                 /home/sean/.cache/arduino/sketches/828FCB417685B578D8734FE54D6C0719/../../cores/adafruit_nrf52_feather52832_834d5f6a6bc090e19e7c4385762c2a0a/core.a(tasks.c.o)
                                                  /home/sean/.cache/arduino/sketches/828FCB417685B578D8734FE54D6C0719/../../cores/adafruit_nrf52_feather52832_834d5f6a6bc090e19e7c4385762c2a0a/core.a(timers.c.o)
xTaskGenericNotify                                /home/sean/.cache/arduino/sketches/828FCB417685B578D8734FE54D6C0719/../../cores/adafruit_nrf52_feather52832_834d5f6a6bc090e19e7c4385762c2a0a/core.a(tasks.c.o)
xTaskGenericNotifyFromISR                         /home/sean/.cache/arduino/sketches/828FCB417685B578D8734FE54D6C0719/../../cores/adafruit_nrf52_feather52832_834d5f6a6bc090e19e7c4385762c2a0a/core.a(tasks.c.o)
xTaskGetCurrentTaskHandle                         /home/sean/.cache/arduino/sketches/828FCB417685B578D8734FE54D6C0719/../../cores/adafruit_nrf52_feather52832_834d5f6a6bc090e19e7c4385762c2a0a/core.a(tasks.c.o)
                                                  /home/sean/.cache/arduino/sketches/828FCB417685B578D8734FE54D6C0719/../../cores/adafruit_nrf52_feather52832_834d5f6a6bc090e19e7c4385762c2a0a/core.a(queue.c.o)
xTaskGetIdleTaskHandle                            /home/sean/.cache/arduino/sketches/828FCB417685B578D8734FE54D6C0719/../../cores/adafruit_nrf52_feather52832_834d5f6a6bc090e19e7c4385762c2a0a/core.a(tasks.c.o)
xTaskGetSchedulerState                            /home/sean/.cache/arduino/sketches/828FCB417685B578D8734FE54D6C0719/../../cores/adafruit_nrf52_feather52832_834d5f6a6bc090e19e7c4385762c2a0a/core.a(tasks.c.o)
                                                  /home/sean/.cache/arduino/sketches/828FCB417685B578D8734FE54D6C0719/../../cores/adafruit_nrf52_feather52832_834d5f6a6bc090e19e7c4385762c2a0a/core.a(port_cmsis_systick.c.o)
                                                  /home/sean/.cache/arduino/sketches/828FCB417685B578D8734FE54D6C0719/../../cores/adafruit_nrf52_feather52832_834d5f6a6bc090e19e7c4385762c2a0a/core.a(timers.c.o)
                                                  /home/sean/.cache/arduino/sketches/828FCB417685B578D8734FE54D6C0719/../../cores/adafruit_nrf52_feather52832_834d5f6a6bc090e19e7c4385762c2a0a/core.a(heap_3.c.o)
xTaskGetTickCount                                 /home/sean/.cache/arduino/sketches/828FCB417685B578D8734FE54D6C0719/../../cores/adafruit_nrf52_feather52832_834d5f6a6bc090e19e7c4385762c2a0a/core.a(tasks.c.o)
                                                  /home/sean/.cache/arduino/sketches/828FCB417685B578D8734FE54D6C0719/../../cores/adafruit_nrf52_feather52832_834d5f6a6bc090e19e7c4385762c2a0a/core.a(port_cmsis_systick.c.o)
                                                  /home/sean/.cache/arduino/sketches/828FCB417685B578D8734FE54D6C0719/../../cores/adafruit_nrf52_feather52832_834d5f6a6bc090e19e7c4385762c2a0a/core.a(timers.c.o)
xTaskGetTickCountFromISR                          /home/sean/.cache/arduino/sketches/828FCB417685B578D8734FE54D6C0719/../../cores/adafruit_nrf52_feather52832_834d5f6a6bc090e19e7c4385762c2a0a/core.a(tasks.c.o)
xTaskIncrementTick                                /home/sean/.cache/arduino/sketches/828FCB417685B578D8734FE54D6C0719/../../cores/adafruit_nrf52_feather52832_834d5f6a6bc090e19e7c4385762c2a0a/core.a(tasks.c.o)
                                                  /home/sean/.cache/arduino/sketches/828FCB417685B578D8734FE54D6C0719/../../cores/adafruit_nrf52_feather52832_834d5f6a6bc090e19e7c4385762c2a0a/core.a(port_cmsis_systick.c.o)
xTaskNotifyStateClear                             /home/sean/.cache/arduino/sketches/828FCB417685B578D8734FE54D6C0719/../../cores/adafruit_nrf52_feather52832_834d5f6a6bc090e19e7c4385762c2a0a/core.a(tasks.c.o)
xTaskNotifyWait                                   /home/sean/.cache/arduino/sketches/828FCB417685B578D8734FE54D6C0719/../../cores/adafruit_nrf52_feather52832_834d5f6a6bc090e19e7c4385762c2a0a/core.a(tasks.c.o)
xTaskPriorityDisinherit                           /home/sean/.cache/arduino/sketches/828FCB417685B578D8734FE54D6C0719/../../cores/adafruit_nrf52_feather52832_834d5f6a6bc090e19e7c4385762c2a0a/core.a(tasks.c.o)
                                                  /home/sean/.cache/arduino/sketches/828FCB417685B578D8734FE54D6C0719/../../cores/adafruit_nrf52_feather52832_834d5f6a6bc090e19e7c4385762c2a0a/core.a(queue.c.o)
xTaskPriorityInherit                              /home/sean/.cache/arduino/sketches/828FCB417685B578D8734FE54D6C0719/../../cores/adafruit_nrf52_feather52832_834d5f6a6bc090e19e7c4385762c2a0a/core.a(tasks.c.o)
                                                  /home/sean/.cache/arduino/sketches/828FCB417685B578D8734FE54D6C0719/../../cores/adafruit_nrf52_feather52832_834d5f6a6bc090e19e7c4385762c2a0a/core.a(queue.c.o)
xTaskRemoveFromEventList                          /home/sean/.cache/arduino/sketches/828FCB417685B578D8734FE54D6C0719/../../cores/adafruit_nrf52_feather52832_834d5f6a6bc090e19e7c4385762c2a0a/core.a(tasks.c.o)
                                                  /home/sean/.cache/arduino/sketches/828FCB417685B578D8734FE54D6C0719/../../cores/adafruit_nrf52_feather52832_834d5f6a6bc090e19e7c4385762c2a0a/core.a(queue.c.o)
xTaskResumeAll                                    /home/sean/.cache/arduino/sketches/828FCB417685B578D8734FE54D6C0719/../../cores/adafruit_nrf52_feather52832_834d5f6a6bc090e19e7c4385762c2a0a/core.a(tasks.c.o)
                                                  /home/sean/.cache/arduino/sketches/828FCB417685B578D8734FE54D6C0719/../../cores/adafruit_nrf52_feather52832_834d5f6a6bc090e19e7c4385762c2a0a/core.a(timers.c.o)
                                                  /home/sean/.cache/arduino/sketches/828FCB417685B578D8734FE54D6C0719/../../cores/adafruit_nrf52_feather52832_834d5f6a6bc090e19e7c4385762c2a0a/core.a(queue.c.o)
                                                  /home/sean/.cache/arduino/sketches/828FCB417685B578D8734FE54D6C0719/../../cores/adafruit_nrf52_feather52832_834d5f6a6bc090e19e7c4385762c2a0a/core.a(heap_3.c.o)
xTaskResumeFromISR                                /home/sean/.cache/arduino/sketches/828FCB417685B578D8734FE54D6C0719/../../cores/adafruit_nrf52_feather52832_834d5f6a6bc090e19e7c4385762c2a0a/core.a(tasks.c.o)
                                                  /home/sean/.cache/arduino/sketches/828FCB417685B578D8734FE54D6C0719/../../cores/adafruit_nrf52_feather52832_834d5f6a6bc090e19e7c4385762c2a0a/core.a(main.cpp.o)
xTimerCreate                                      /home/sean/.cache/arduino/sketches/828FCB417685B578D8734FE54D6C0719/../../cores/adafruit_nrf52_feather52832_834d5f6a6bc090e19e7c4385762c2a0a/core.a(timers.c.o)
xTimerCreateStatic                                /home/sean/.cache/arduino/sketches/828FCB417685B578D8734FE54D6C0719/../../cores/adafruit_nrf52_feather52832_834d5f6a6bc090e19e7c4385762c2a0a/core.a(timers.c.o)
xTimerCreateTimerTask                             /home/sean/.cache/arduino/sketches/828FCB417685B578D8734FE54D6C0719/../../cores/adafruit_nrf52_feather52832_834d5f6a6bc090e19e7c4385762c2a0a/core.a(timers.c.o)
                                                  /home/sean/.cache/arduino/sketches/828FCB417685B578D8734FE54D6C0719/../../cores/adafruit_nrf52_feather52832_834d5f6a6bc090e19e7c4385762c2a0a/core.a(tasks.c.o)
xTimerGenericCommand                              /home/sean/.cache/arduino/sketches/828FCB417685B578D8734FE54D6C0719/../../cores/adafruit_nrf52_feather52832_834d5f6a6bc090e19e7c4385762c2a0a/core.a(timers.c.o)
xTimerGetExpiryTime                               /home/sean/.cache/arduino/sketches/828FCB417685B578D8734FE54D6C0719/../../cores/adafruit_nrf52_feather52832_834d5f6a6bc090e19e7c4385762c2a0a/core.a(timers.c.o)
xTimerGetPeriod                                   /home/sean/.cache/arduino/sketches/828FCB417685B578D8734FE54D6C0719/../../cores/adafruit_nrf52_feather52832_834d5f6a6bc090e19e7c4385762c2a0a/core.a(timers.c.o)
xTimerGetTimerDaemonTaskHandle                    /home/sean/.cache/arduino/sketches/828FCB417685B578D8734FE54D6C0719/../../cores/adafruit_nrf52_feather52832_834d5f6a6bc090e19e7c4385762c2a0a/core.a(timers.c.o)
xTimerIsTimerActive                               /home/sean/.cache/arduino/sketches/828FCB417685B578D8734FE54D6C0719/../../cores/adafruit_nrf52_feather52832_834d5f6a6bc090e19e7c4385762c2a0a/core.a(timers.c.o)
xTimerPendFunctionCall                            /home/sean/.cache/arduino/sketches/828FCB417685B578D8734FE54D6C0719/../../cores/adafruit_nrf52_feather52832_834d5f6a6bc090e19e7c4385762c2a0a/core.a(timers.c.o)
xTimerPendFunctionCallFromISR                     /home/sean/.cache/arduino/sketches/828FCB417685B578D8734FE54D6C0719/../../cores/adafruit_nrf52_feather52832_834d5f6a6bc090e19e7c4385762c2a0a/core.a(timers.c.o)
yield                                             /home/sean/.cache/arduino/sketches/828FCB417685B578D8734FE54D6C0719/../../cores/adafruit_nrf52_feather52832_834d5f6a6bc090e19e7c4385762c2a0a/core.a(rtos.cpp.o)
                                                  /home/sean/.cache/arduino/sketches/828FCB417685B578D8734FE54D6C0719/../../cores/adafruit_nrf52_feather52832_834d5f6a6bc090e19e7c4385762c2a0a/core.a(Uart.cpp.o)
                                                  /home/sean/.cache/arduino/sketches/828FCB417685B578D8734FE54D6C0719/../../cores/adafruit_nrf52_feather52832_834d5f6a6bc090e19e7c4385762c2a0a/core.a(main.cpp.o)
